                                      1 ;--------------------------------------------------------
                                      2 ; File Created by SDCC : free open source ANSI-C Compiler
                                      3 ; Version 4.1.6 #12539 (MINGW32)
                                      4 ;--------------------------------------------------------
                                      5 	.module GamplayScreen
                                      6 	.optsdcc -mgbz80
                                      7 	
                                      8 ;--------------------------------------------------------
                                      9 ; Public variables in this module
                                     10 ;--------------------------------------------------------
                                     11 	.globl _UpdateGameplayScreen
                                     12 	.globl _SetupGameplayScreen
                                     13 	.globl _SetupLevel
                                     14 	.globl _DrawBarricade
                                     15 	.globl _IncreaseScore
                                     16 	.globl _UpdateScore
                                     17 	.globl _SetupAlien
                                     18 	.globl _UpdateAlien
                                     19 	.globl _UpdateBullets
                                     20 	.globl _SetupBullets
                                     21 	.globl _UpdateInvaders
                                     22 	.globl _SetupInvaders
                                     23 	.globl _SetupPlayer
                                     24 	.globl _UpdatePlayer
                                     25 	.globl _DrawNumber
                                     26 	.globl _DrawText
                                     27 	.globl _set_bkg_tile_xy
                                     28 	.globl _helper
                                     29 	.globl _score
                                     30 ;--------------------------------------------------------
                                     31 ; special function registers
                                     32 ;--------------------------------------------------------
                                     33 ;--------------------------------------------------------
                                     34 ; ram data
                                     35 ;--------------------------------------------------------
                                     36 	.area _DATA
      000000                         37 _score::
      000000                         38 	.ds 2
                                     39 ;--------------------------------------------------------
                                     40 ; ram data
                                     41 ;--------------------------------------------------------
                                     42 	.area _INITIALIZED
      000000                         43 _helper::
      000000                         44 	.ds 5
                                     45 ;--------------------------------------------------------
                                     46 ; absolute external ram data
                                     47 ;--------------------------------------------------------
                                     48 	.area _DABS (ABS)
                                     49 ;--------------------------------------------------------
                                     50 ; global & static initialisations
                                     51 ;--------------------------------------------------------
                                     52 	.area _HOME
                                     53 	.area _GSINIT
                                     54 	.area _GSFINAL
                                     55 	.area _GSINIT
                                     56 ;--------------------------------------------------------
                                     57 ; Home
                                     58 ;--------------------------------------------------------
                                     59 	.area _HOME
                                     60 	.area _HOME
                                     61 ;--------------------------------------------------------
                                     62 ; code
                                     63 ;--------------------------------------------------------
                                     64 	.area _CODE
                                     65 ;D:\Business\LaroldsJubilantJunkyard\game-remakes\space-invaders\source\main\default\States\GamplayScreen.c:18: void UpdateScore(){
                                     66 ;	---------------------------------
                                     67 ; Function UpdateScore
                                     68 ; ---------------------------------
      000000                         69 _UpdateScore::
                                     70 ;D:\Business\LaroldsJubilantJunkyard\game-remakes\space-invaders\source\main\default\States\GamplayScreen.c:20: DrawText(2,0,"SCORE");
      000000 11r5Dr00                71 	ld	de, #___str_0
      000003 D5                      72 	push	de
      000004 21 02 00                73 	ld	hl, #0x02
      000007 E5                      74 	push	hl
      000008 CDr00r00                75 	call	_DrawText
      00000B E8 04                   76 	add	sp, #4
                                     77 ;D:\Business\LaroldsJubilantJunkyard\game-remakes\space-invaders\source\main\default\States\GamplayScreen.c:21: DrawNumber(8,0,score,5);
      00000D 3E 05                   78 	ld	a, #0x05
      00000F F5                      79 	push	af
      000010 33                      80 	inc	sp
      000011 21r00r00                81 	ld	hl, #_score
      000014 2A                      82 	ld	a, (hl+)
      000015 5F                      83 	ld	e, a
      000016 56                      84 	ld	d, (hl)
      000017 D5                      85 	push	de
      000018 21 08 00                86 	ld	hl, #0x08
      00001B E5                      87 	push	hl
      00001C CDr00r00                88 	call	_DrawNumber
      00001F E8 05                   89 	add	sp, #5
                                     90 ;D:\Business\LaroldsJubilantJunkyard\game-remakes\space-invaders\source\main\default\States\GamplayScreen.c:23: set_bkg_tile_xy(13,0,PLAYER_SPRITE_START);
      000021 3E 01                   91 	ld	a, #0x01
      000023 F5                      92 	push	af
      000024 33                      93 	inc	sp
      000025 21 0D 00                94 	ld	hl, #0x0d
      000028 E5                      95 	push	hl
      000029 CDr00r00                96 	call	_set_bkg_tile_xy
      00002C E8 03                   97 	add	sp, #3
                                     98 ;D:\Business\LaroldsJubilantJunkyard\game-remakes\space-invaders\source\main\default\States\GamplayScreen.c:24: set_bkg_tile_xy(14,0,PLAYER_SPRITE_START+1);
      00002E 3E 02                   99 	ld	a, #0x02
      000030 F5                     100 	push	af
      000031 33                     101 	inc	sp
      000032 21 0E 00               102 	ld	hl, #0x0e
      000035 E5                     103 	push	hl
      000036 CDr00r00               104 	call	_set_bkg_tile_xy
      000039 E8 03                  105 	add	sp, #3
                                    106 ;D:\Business\LaroldsJubilantJunkyard\game-remakes\space-invaders\source\main\default\States\GamplayScreen.c:25: DrawText(15,0,"=");
      00003B 11r63r00               107 	ld	de, #___str_1
      00003E D5                     108 	push	de
      00003F 21 0F 00               109 	ld	hl, #0x0f
      000042 E5                     110 	push	hl
      000043 CDr00r00               111 	call	_DrawText
      000046 E8 04                  112 	add	sp, #4
                                    113 ;D:\Business\LaroldsJubilantJunkyard\game-remakes\space-invaders\source\main\default\States\GamplayScreen.c:26: DrawNumber(16,0,paddle.lives,2);
      000048 FAr03r00               114 	ld	a, (#(_paddle + 3) + 0)
      00004B 06 00                  115 	ld	b, #0x00
      00004D 26 02                  116 	ld	h, #0x02
                                    117 ;	spillPairReg hl
                                    118 ;	spillPairReg hl
      00004F E5                     119 	push	hl
      000050 33                     120 	inc	sp
      000051 4F                     121 	ld	c, a
      000052 C5                     122 	push	bc
      000053 21 10 00               123 	ld	hl, #0x10
      000056 E5                     124 	push	hl
      000057 CDr00r00               125 	call	_DrawNumber
      00005A E8 05                  126 	add	sp, #5
                                    127 ;D:\Business\LaroldsJubilantJunkyard\game-remakes\space-invaders\source\main\default\States\GamplayScreen.c:28: }
      00005C C9                     128 	ret
      00005D                        129 ___str_0:
      00005D 53 43 4F 52 45         130 	.ascii "SCORE"
      000062 00                     131 	.db 0x00
      000063                        132 ___str_1:
      000063 3D                     133 	.ascii "="
      000064 00                     134 	.db 0x00
                                    135 ;D:\Business\LaroldsJubilantJunkyard\game-remakes\space-invaders\source\main\default\States\GamplayScreen.c:30: void IncreaseScore(uint8_t amount){
                                    136 ;	---------------------------------
                                    137 ; Function IncreaseScore
                                    138 ; ---------------------------------
      000065                        139 _IncreaseScore::
                                    140 ;D:\Business\LaroldsJubilantJunkyard\game-remakes\space-invaders\source\main\default\States\GamplayScreen.c:32: score+=amount;
      000065 F8 02                  141 	ldhl	sp,	#2
      000067 4E                     142 	ld	c, (hl)
      000068 06 00                  143 	ld	b, #0x00
      00006A 21r00r00               144 	ld	hl, #_score
      00006D 6E                     145 	ld	l, (hl)
                                    146 ;	spillPairReg hl
                                    147 ;	spillPairReg hl
      00006E FAr01r00               148 	ld	a, (_score + 1)
      000071 67                     149 	ld	h, a
                                    150 ;	spillPairReg hl
                                    151 ;	spillPairReg hl
      000072 09                     152 	add	hl, bc
      000073 4D                     153 	ld	c, l
      000074 7C                     154 	ld	a, h
      000075 21r00r00               155 	ld	hl, #_score
      000078 71                     156 	ld	(hl), c
      000079 23                     157 	inc	hl
      00007A 77                     158 	ld	(hl), a
                                    159 ;D:\Business\LaroldsJubilantJunkyard\game-remakes\space-invaders\source\main\default\States\GamplayScreen.c:33: if(score>highScore)highScore=score;
      00007B 21r00r00               160 	ld	hl, #_highScore
      00007E 4E                     161 	ld	c, (hl)
      00007F 06 00                  162 	ld	b, #0x00
      000081 21r00r00               163 	ld	hl, #_score
      000084 79                     164 	ld	a, c
      000085 96                     165 	sub	a, (hl)
      000086 23                     166 	inc	hl
      000087 78                     167 	ld	a, b
      000088 9E                     168 	sbc	a, (hl)
      000089 D2r00r00               169 	jp	NC,_UpdateScore
      00008C FAr00r00               170 	ld	a, (#_score)
      00008F 21r00r00               171 	ld	hl, #_highScore
      000092 77                     172 	ld	(hl), a
                                    173 ;D:\Business\LaroldsJubilantJunkyard\game-remakes\space-invaders\source\main\default\States\GamplayScreen.c:35: UpdateScore();
                                    174 ;D:\Business\LaroldsJubilantJunkyard\game-remakes\space-invaders\source\main\default\States\GamplayScreen.c:36: }
      000093 C3r00r00               175 	jp	_UpdateScore
                                    176 ;D:\Business\LaroldsJubilantJunkyard\game-remakes\space-invaders\source\main\default\States\GamplayScreen.c:38: void DrawBarricade(uint8_t topLeftX, uint8_t topLeftY){
                                    177 ;	---------------------------------
                                    178 ; Function DrawBarricade
                                    179 ; ---------------------------------
      000096                        180 _DrawBarricade::
      000096 3B                     181 	dec	sp
      000097 3B                     182 	dec	sp
                                    183 ;D:\Business\LaroldsJubilantJunkyard\game-remakes\space-invaders\source\main\default\States\GamplayScreen.c:42: set_bkg_tile_xy(topLeftX,topLeftY,BARRICADE_TILES_START+tileRowSize);
      000098 3E 63                  184 	ld	a, #0x63
      00009A F5                     185 	push	af
      00009B 33                     186 	inc	sp
      00009C F8 06                  187 	ldhl	sp,	#6
      00009E 3A                     188 	ld	a, (hl-)
      00009F 57                     189 	ld	d, a
      0000A0 5E                     190 	ld	e, (hl)
      0000A1 D5                     191 	push	de
      0000A2 CDr00r00               192 	call	_set_bkg_tile_xy
      0000A5 E8 03                  193 	add	sp, #3
                                    194 ;D:\Business\LaroldsJubilantJunkyard\game-remakes\space-invaders\source\main\default\States\GamplayScreen.c:43: set_bkg_tile_xy(topLeftX+1,topLeftY,BARRICADE_TILES_START);
      0000A7 F8 04                  195 	ldhl	sp,	#4
      0000A9 46                     196 	ld	b, (hl)
      0000AA 78                     197 	ld	a, b
      0000AB 3C                     198 	inc	a
      0000AC F8 00                  199 	ldhl	sp,	#0
      0000AE 77                     200 	ld	(hl), a
      0000AF 3E 60                  201 	ld	a, #0x60
      0000B1 F5                     202 	push	af
      0000B2 33                     203 	inc	sp
      0000B3 F8 06                  204 	ldhl	sp,	#6
      0000B5 7E                     205 	ld	a, (hl)
      0000B6 F5                     206 	push	af
      0000B7 33                     207 	inc	sp
      0000B8 F8 02                  208 	ldhl	sp,	#2
      0000BA 7E                     209 	ld	a, (hl)
      0000BB F5                     210 	push	af
      0000BC 33                     211 	inc	sp
      0000BD CDr00r00               212 	call	_set_bkg_tile_xy
      0000C0 E8 03                  213 	add	sp, #3
                                    214 ;D:\Business\LaroldsJubilantJunkyard\game-remakes\space-invaders\source\main\default\States\GamplayScreen.c:44: set_bkg_tile_xy(topLeftX+2,topLeftY,BARRICADE_TILES_START);
      0000C2 48                     215 	ld	c, b
      0000C3 0C                     216 	inc	c
      0000C4 0C                     217 	inc	c
      0000C5 3E 60                  218 	ld	a, #0x60
      0000C7 F5                     219 	push	af
      0000C8 33                     220 	inc	sp
      0000C9 F8 06                  221 	ldhl	sp,	#6
      0000CB 7E                     222 	ld	a, (hl)
      0000CC F5                     223 	push	af
      0000CD 33                     224 	inc	sp
      0000CE 79                     225 	ld	a, c
      0000CF F5                     226 	push	af
      0000D0 33                     227 	inc	sp
      0000D1 CDr00r00               228 	call	_set_bkg_tile_xy
      0000D4 E8 03                  229 	add	sp, #3
                                    230 ;D:\Business\LaroldsJubilantJunkyard\game-remakes\space-invaders\source\main\default\States\GamplayScreen.c:45: set_bkg_tile_xy(topLeftX+3,topLeftY,BARRICADE_TILES_START+tileRowSize*2);
      0000D6 3E 03                  231 	ld	a, #0x03
      0000D8 87                     232 	add	a, a
      0000D9 C6 60                  233 	add	a, #0x60
      0000DB 5F                     234 	ld	e, a
      0000DC 78                     235 	ld	a, b
      0000DD C6 03                  236 	add	a, #0x03
      0000DF F8 01                  237 	ldhl	sp,	#1
      0000E1 77                     238 	ld	(hl), a
      0000E2 7B                     239 	ld	a, e
      0000E3 F5                     240 	push	af
      0000E4 33                     241 	inc	sp
      0000E5 F8 06                  242 	ldhl	sp,	#6
      0000E7 7E                     243 	ld	a, (hl)
      0000E8 F5                     244 	push	af
      0000E9 33                     245 	inc	sp
      0000EA F8 03                  246 	ldhl	sp,	#3
      0000EC 7E                     247 	ld	a, (hl)
      0000ED F5                     248 	push	af
      0000EE 33                     249 	inc	sp
      0000EF CDr00r00               250 	call	_set_bkg_tile_xy
      0000F2 E8 03                  251 	add	sp, #3
                                    252 ;D:\Business\LaroldsJubilantJunkyard\game-remakes\space-invaders\source\main\default\States\GamplayScreen.c:47: set_bkg_tile_xy(topLeftX+0,topLeftY+1,BARRICADE_TILES_START);
      0000F4 F8 05                  253 	ldhl	sp,	#5
      0000F6 3A                     254 	ld	a, (hl-)
      0000F7 47                     255 	ld	b, a
      0000F8 50                     256 	ld	d, b
      0000F9 14                     257 	inc	d
      0000FA D5                     258 	push	de
      0000FB 3E 60                  259 	ld	a, #0x60
      0000FD F5                     260 	push	af
      0000FE 33                     261 	inc	sp
      0000FF 5E                     262 	ld	e, (hl)
      000100 D5                     263 	push	de
      000101 CDr00r00               264 	call	_set_bkg_tile_xy
      000104 E8 03                  265 	add	sp, #3
      000106 D1                     266 	pop	de
                                    267 ;D:\Business\LaroldsJubilantJunkyard\game-remakes\space-invaders\source\main\default\States\GamplayScreen.c:48: set_bkg_tile_xy(topLeftX+1,topLeftY+1,BARRICADE_TILES_START);
      000107 D5                     268 	push	de
      000108 3E 60                  269 	ld	a, #0x60
      00010A F5                     270 	push	af
      00010B 33                     271 	inc	sp
      00010C D5                     272 	push	de
      00010D 33                     273 	inc	sp
      00010E F8 04                  274 	ldhl	sp,	#4
      000110 7E                     275 	ld	a, (hl)
      000111 F5                     276 	push	af
      000112 33                     277 	inc	sp
      000113 CDr00r00               278 	call	_set_bkg_tile_xy
      000116 E8 03                  279 	add	sp, #3
      000118 D1                     280 	pop	de
                                    281 ;D:\Business\LaroldsJubilantJunkyard\game-remakes\space-invaders\source\main\default\States\GamplayScreen.c:49: set_bkg_tile_xy(topLeftX+2,topLeftY+1,BARRICADE_TILES_START);
      000119 D5                     282 	push	de
      00011A 3E 60                  283 	ld	a, #0x60
      00011C F5                     284 	push	af
      00011D 33                     285 	inc	sp
      00011E 59                     286 	ld	e, c
      00011F D5                     287 	push	de
      000120 CDr00r00               288 	call	_set_bkg_tile_xy
      000123 E8 03                  289 	add	sp, #3
      000125 D1                     290 	pop	de
                                    291 ;D:\Business\LaroldsJubilantJunkyard\game-remakes\space-invaders\source\main\default\States\GamplayScreen.c:50: set_bkg_tile_xy(topLeftX+3,topLeftY+1,BARRICADE_TILES_START);
      000126 3E 60                  292 	ld	a, #0x60
      000128 F5                     293 	push	af
      000129 33                     294 	inc	sp
      00012A D5                     295 	push	de
      00012B 33                     296 	inc	sp
      00012C F8 03                  297 	ldhl	sp,	#3
      00012E 7E                     298 	ld	a, (hl)
      00012F F5                     299 	push	af
      000130 33                     300 	inc	sp
      000131 CDr00r00               301 	call	_set_bkg_tile_xy
      000134 E8 03                  302 	add	sp, #3
                                    303 ;D:\Business\LaroldsJubilantJunkyard\game-remakes\space-invaders\source\main\default\States\GamplayScreen.c:53: set_bkg_tile_xy(topLeftX+0,topLeftY+2,BARRICADE_TILES_START);
      000136 04                     304 	inc	b
      000137 04                     305 	inc	b
      000138 3E 60                  306 	ld	a, #0x60
      00013A F5                     307 	push	af
      00013B 33                     308 	inc	sp
      00013C C5                     309 	push	bc
      00013D 33                     310 	inc	sp
      00013E F8 06                  311 	ldhl	sp,	#6
      000140 7E                     312 	ld	a, (hl)
      000141 F5                     313 	push	af
      000142 33                     314 	inc	sp
      000143 CDr00r00               315 	call	_set_bkg_tile_xy
      000146 E8 03                  316 	add	sp, #3
                                    317 ;D:\Business\LaroldsJubilantJunkyard\game-remakes\space-invaders\source\main\default\States\GamplayScreen.c:54: set_bkg_tile_xy(topLeftX+1,topLeftY+2,BARRICADE_TILES_START+tileRowSize*3);
      000148 3E 03                  318 	ld	a, #0x03
      00014A 5F                     319 	ld	e, a
      00014B 87                     320 	add	a, a
      00014C 83                     321 	add	a, e
      00014D C6 60                  322 	add	a, #0x60
      00014F F5                     323 	push	af
      000150 33                     324 	inc	sp
      000151 C5                     325 	push	bc
      000152 33                     326 	inc	sp
      000153 F8 02                  327 	ldhl	sp,	#2
      000155 7E                     328 	ld	a, (hl)
      000156 F5                     329 	push	af
      000157 33                     330 	inc	sp
      000158 CDr00r00               331 	call	_set_bkg_tile_xy
      00015B E8 03                  332 	add	sp, #3
                                    333 ;D:\Business\LaroldsJubilantJunkyard\game-remakes\space-invaders\source\main\default\States\GamplayScreen.c:55: set_bkg_tile_xy(topLeftX+2,topLeftY+2,BARRICADE_TILES_START+tileRowSize*4);
      00015D 3E 03                  334 	ld	a, #0x03
      00015F 87                     335 	add	a, a
      000160 87                     336 	add	a, a
      000161 C6 60                  337 	add	a, #0x60
      000163 F5                     338 	push	af
      000164 33                     339 	inc	sp
      000165 C5                     340 	push	bc
      000166 33                     341 	inc	sp
      000167 79                     342 	ld	a, c
      000168 F5                     343 	push	af
      000169 33                     344 	inc	sp
      00016A CDr00r00               345 	call	_set_bkg_tile_xy
      00016D E8 03                  346 	add	sp, #3
                                    347 ;D:\Business\LaroldsJubilantJunkyard\game-remakes\space-invaders\source\main\default\States\GamplayScreen.c:56: set_bkg_tile_xy(topLeftX+3,topLeftY+2,BARRICADE_TILES_START);
      00016F 3E 60                  348 	ld	a, #0x60
      000171 F5                     349 	push	af
      000172 33                     350 	inc	sp
      000173 C5                     351 	push	bc
      000174 33                     352 	inc	sp
      000175 F8 03                  353 	ldhl	sp,	#3
      000177 7E                     354 	ld	a, (hl)
      000178 F5                     355 	push	af
      000179 33                     356 	inc	sp
      00017A CDr00r00               357 	call	_set_bkg_tile_xy
                                    358 ;D:\Business\LaroldsJubilantJunkyard\game-remakes\space-invaders\source\main\default\States\GamplayScreen.c:57: }
      00017D E8 05                  359 	add	sp, #5
      00017F C9                     360 	ret
                                    361 ;D:\Business\LaroldsJubilantJunkyard\game-remakes\space-invaders\source\main\default\States\GamplayScreen.c:59: void SetupLevel(){
                                    362 ;	---------------------------------
                                    363 ; Function SetupLevel
                                    364 ; ---------------------------------
      000180                        365 _SetupLevel::
                                    366 ;D:\Business\LaroldsJubilantJunkyard\game-remakes\space-invaders\source\main\default\States\GamplayScreen.c:61: DrawBarricade(2,13);
      000180 21 02 0D               367 	ld	hl, #0xd02
      000183 E5                     368 	push	hl
      000184 CDr96r00               369 	call	_DrawBarricade
      000187 E1                     370 	pop	hl
                                    371 ;D:\Business\LaroldsJubilantJunkyard\game-remakes\space-invaders\source\main\default\States\GamplayScreen.c:62: DrawBarricade(8,13);
      000188 21 08 0D               372 	ld	hl, #0xd08
      00018B E5                     373 	push	hl
      00018C CDr96r00               374 	call	_DrawBarricade
      00018F E1                     375 	pop	hl
                                    376 ;D:\Business\LaroldsJubilantJunkyard\game-remakes\space-invaders\source\main\default\States\GamplayScreen.c:63: DrawBarricade(14,13);
      000190 21 0E 0D               377 	ld	hl, #0xd0e
      000193 E5                     378 	push	hl
      000194 CDr96r00               379 	call	_DrawBarricade
      000197 E1                     380 	pop	hl
                                    381 ;D:\Business\LaroldsJubilantJunkyard\game-remakes\space-invaders\source\main\default\States\GamplayScreen.c:65: }
      000198 C9                     382 	ret
                                    383 ;D:\Business\LaroldsJubilantJunkyard\game-remakes\space-invaders\source\main\default\States\GamplayScreen.c:67: void SetupGameplayScreen(){
                                    384 ;	---------------------------------
                                    385 ; Function SetupGameplayScreen
                                    386 ; ---------------------------------
      000199                        387 _SetupGameplayScreen::
                                    388 ;D:\Business\LaroldsJubilantJunkyard\game-remakes\space-invaders\source\main\default\States\GamplayScreen.c:70: score=0;
      000199 AF                     389 	xor	a, a
      00019A 21r00r00               390 	ld	hl, #_score
      00019D 22                     391 	ld	(hl+), a
      00019E 77                     392 	ld	(hl), a
                                    393 ;D:\Business\LaroldsJubilantJunkyard\game-remakes\space-invaders\source\main\default\States\GamplayScreen.c:71: level=1;
      00019F 21r00r00               394 	ld	hl, #_level
      0001A2 36 01                  395 	ld	(hl), #0x01
                                    396 ;D:\Business\LaroldsJubilantJunkyard\game-remakes\space-invaders\source\main\default\States\GamplayScreen.c:72: paddle.lives=3;
      0001A4 21r03r00               397 	ld	hl, #(_paddle + 3)
      0001A7 36 03                  398 	ld	(hl), #0x03
                                    399 ;D:\Business\LaroldsJubilantJunkyard\game-remakes\space-invaders\source\main\default\States\GamplayScreen.c:74: SetupLevel();  
      0001A9 CDr80r01               400 	call	_SetupLevel
                                    401 ;D:\Business\LaroldsJubilantJunkyard\game-remakes\space-invaders\source\main\default\States\GamplayScreen.c:75: SetupBullets();
      0001AC CDr00r00               402 	call	_SetupBullets
                                    403 ;D:\Business\LaroldsJubilantJunkyard\game-remakes\space-invaders\source\main\default\States\GamplayScreen.c:76: SetupInvaders();
      0001AF CDr00r00               404 	call	_SetupInvaders
                                    405 ;D:\Business\LaroldsJubilantJunkyard\game-remakes\space-invaders\source\main\default\States\GamplayScreen.c:77: SetupPlayer();
      0001B2 CDr00r00               406 	call	_SetupPlayer
                                    407 ;D:\Business\LaroldsJubilantJunkyard\game-remakes\space-invaders\source\main\default\States\GamplayScreen.c:78: SetupAlien();
      0001B5 CDr00r00               408 	call	_SetupAlien
                                    409 ;D:\Business\LaroldsJubilantJunkyard\game-remakes\space-invaders\source\main\default\States\GamplayScreen.c:80: UpdateScore();
                                    410 ;D:\Business\LaroldsJubilantJunkyard\game-remakes\space-invaders\source\main\default\States\GamplayScreen.c:81: }
      0001B8 C3r00r00               411 	jp	_UpdateScore
                                    412 ;D:\Business\LaroldsJubilantJunkyard\game-remakes\space-invaders\source\main\default\States\GamplayScreen.c:83: uint8_t UpdateGameplayScreen(){
                                    413 ;	---------------------------------
                                    414 ; Function UpdateGameplayScreen
                                    415 ; ---------------------------------
      0001BB                        416 _UpdateGameplayScreen::
                                    417 ;D:\Business\LaroldsJubilantJunkyard\game-remakes\space-invaders\source\main\default\States\GamplayScreen.c:85: UpdateInvaders();     
      0001BB CDr00r00               418 	call	_UpdateInvaders
                                    419 ;D:\Business\LaroldsJubilantJunkyard\game-remakes\space-invaders\source\main\default\States\GamplayScreen.c:86: UpdateBullets();
      0001BE CDr00r00               420 	call	_UpdateBullets
                                    421 ;D:\Business\LaroldsJubilantJunkyard\game-remakes\space-invaders\source\main\default\States\GamplayScreen.c:87: UpdatePlayer();
      0001C1 CDr00r00               422 	call	_UpdatePlayer
                                    423 ;D:\Business\LaroldsJubilantJunkyard\game-remakes\space-invaders\source\main\default\States\GamplayScreen.c:88: UpdateAlien();
      0001C4 CDr00r00               424 	call	_UpdateAlien
                                    425 ;D:\Business\LaroldsJubilantJunkyard\game-remakes\space-invaders\source\main\default\States\GamplayScreen.c:90: if (paddle.dead==1&&invadersRemaining>0){
      0001C7 01r02r00               426 	ld	bc, #_paddle + 2
      0001CA 0A                     427 	ld	a, (bc)
      0001CB 3D                     428 	dec	a
      0001CC 20 1E                  429 	jr	NZ, 00106$
      0001CE FAr00r00               430 	ld	a, (#_invadersRemaining)
      0001D1 B7                     431 	or	a, a
      0001D2 28 18                  432 	jr	Z, 00106$
                                    433 ;D:\Business\LaroldsJubilantJunkyard\game-remakes\space-invaders\source\main\default\States\GamplayScreen.c:93: if(paddle.lives==0){
      0001D4 11r03r00               434 	ld	de, #_paddle + 3
      0001D7 1A                     435 	ld	a, (de)
      0001D8 B7                     436 	or	a, a
      0001D9 20 03                  437 	jr	NZ, 00102$
                                    438 ;D:\Business\LaroldsJubilantJunkyard\game-remakes\space-invaders\source\main\default\States\GamplayScreen.c:94: return GAMEOVERSCREEN;
      0001DB 1E 05                  439 	ld	e, #0x05
      0001DD C9                     440 	ret
      0001DE                        441 00102$:
                                    442 ;D:\Business\LaroldsJubilantJunkyard\game-remakes\space-invaders\source\main\default\States\GamplayScreen.c:97: paddle.lives--;
      0001DE 3D                     443 	dec	a
      0001DF 12                     444 	ld	(de), a
                                    445 ;D:\Business\LaroldsJubilantJunkyard\game-remakes\space-invaders\source\main\default\States\GamplayScreen.c:98: paddle.dead=0;
      0001E0 AF                     446 	xor	a, a
      0001E1 02                     447 	ld	(bc), a
                                    448 ;D:\Business\LaroldsJubilantJunkyard\game-remakes\space-invaders\source\main\default\States\GamplayScreen.c:99: paddle.damageTimer=15;
      0001E2 21r04r00               449 	ld	hl, #(_paddle + 4)
      0001E5 36 0F                  450 	ld	(hl), #0x0f
                                    451 ;D:\Business\LaroldsJubilantJunkyard\game-remakes\space-invaders\source\main\default\States\GamplayScreen.c:101: UpdateScore();
      0001E7 CDr00r00               452 	call	_UpdateScore
      0001EA 18 07                  453 	jr	00107$
      0001EC                        454 00106$:
                                    455 ;D:\Business\LaroldsJubilantJunkyard\game-remakes\space-invaders\source\main\default\States\GamplayScreen.c:103: }else if(invadersRemaining==0){
      0001EC FAr00r00               456 	ld	a, (#_invadersRemaining)
      0001EF B7                     457 	or	a, a
                                    458 ;D:\Business\LaroldsJubilantJunkyard\game-remakes\space-invaders\source\main\default\States\GamplayScreen.c:104: return NEXTLEVELSCREEN;
                                    459 ;D:\Business\LaroldsJubilantJunkyard\game-remakes\space-invaders\source\main\default\States\GamplayScreen.c:107: return GAMEPLAYSCREEN;
      0001F0 1E 04                  460 	ld	e, #0x04
      0001F2 C8                     461 	ret	Z
      0001F3                        462 00107$:
      0001F3 1E 03                  463 	ld	e, #0x03
                                    464 ;D:\Business\LaroldsJubilantJunkyard\game-remakes\space-invaders\source\main\default\States\GamplayScreen.c:108: }
      0001F5 C9                     465 	ret
                                    466 	.area _CODE
                                    467 	.area _INITIALIZER
      000000                        468 __xinit__helper:
      000000 00                     469 	.db #0x00	; 0
      000001 00                     470 	.db #0x00	; 0
      000002 00                     471 	.db #0x00	; 0
      000003 00                     472 	.db #0x00	; 0
      000004 00                     473 	.db #0x00	; 0
                                    474 	.area _CABS (ABS)
