                                      1 ;--------------------------------------------------------
                                      2 ; File Created by SDCC : free open source ANSI-C Compiler
                                      3 ; Version 4.1.6 #12539 (MINGW32)
                                      4 ;--------------------------------------------------------
                                      5 	.module invaders
                                      6 	.optsdcc -mgbz80
                                      7 	
                                      8 ;--------------------------------------------------------
                                      9 ; Public variables in this module
                                     10 ;--------------------------------------------------------
                                     11 	.globl _InvadersShouldMove
                                     12 	.globl _ShiftAllInvadersDown
                                     13 	.globl _InvaderTryFireBullet
                                     14 	.globl _SlideInvader
                                     15 	.globl _UpdateInvaderTiles
                                     16 	.globl _InvaderCheckBulletCollision
                                     17 	.globl _InvaderCheckPlayerCollision
                                     18 	.globl _RandomNumber
                                     19 	.globl _IncreaseScore
                                     20 	.globl _GetAvailableBulletSprite
                                     21 	.globl _fill_bkg_rect
                                     22 	.globl _set_bkg_tile_xy
                                     23 	.globl _shotTimer
                                     24 	.globl _invadersRemaining
                                     25 	.globl _topRow
                                     26 	.globl _invaderCounter
                                     27 	.globl _invaderSpeed
                                     28 	.globl _invaders
                                     29 	.globl _tiles
                                     30 	.globl _SetupInvaders
                                     31 	.globl _UpdateInvaders
                                     32 ;--------------------------------------------------------
                                     33 ; special function registers
                                     34 ;--------------------------------------------------------
                                     35 ;--------------------------------------------------------
                                     36 ; ram data
                                     37 ;--------------------------------------------------------
                                     38 	.area _DATA
      000000                         39 _invaders::
      000000                         40 	.ds 200
      0000C8                         41 _invaderSpeed::
      0000C8                         42 	.ds 1
      0000C9                         43 _invaderCounter::
      0000C9                         44 	.ds 1
      0000CA                         45 _topRow::
      0000CA                         46 	.ds 1
      0000CB                         47 _invadersRemaining::
      0000CB                         48 	.ds 1
      0000CC                         49 _shotTimer::
      0000CC                         50 	.ds 1
                                     51 ;--------------------------------------------------------
                                     52 ; ram data
                                     53 ;--------------------------------------------------------
                                     54 	.area _INITIALIZED
                                     55 ;--------------------------------------------------------
                                     56 ; absolute external ram data
                                     57 ;--------------------------------------------------------
                                     58 	.area _DABS (ABS)
                                     59 ;--------------------------------------------------------
                                     60 ; global & static initialisations
                                     61 ;--------------------------------------------------------
                                     62 	.area _HOME
                                     63 	.area _GSINIT
                                     64 	.area _GSFINAL
                                     65 	.area _GSINIT
                                     66 ;--------------------------------------------------------
                                     67 ; Home
                                     68 ;--------------------------------------------------------
                                     69 	.area _HOME
                                     70 	.area _HOME
                                     71 ;--------------------------------------------------------
                                     72 ; code
                                     73 ;--------------------------------------------------------
                                     74 	.area _CODE
                                     75 ;D:\Business\LaroldsJubilantJunkyard\game-remakes\space-invaders\source\main\default\States\Gameplay\invaders.c:15: void SetupInvaders(){
                                     76 ;	---------------------------------
                                     77 ; Function SetupInvaders
                                     78 ; ---------------------------------
      000000                         79 _SetupInvaders::
      000000 E8 F1                   80 	add	sp, #-15
                                     81 ;D:\Business\LaroldsJubilantJunkyard\game-remakes\space-invaders\source\main\default\States\Gameplay\invaders.c:17: UINT8 alienTypes[3]={INVADER1_TILES_START,INVADER2_TILES_START,INVADER3_TILES_START};
      000002 F8 00                   82 	ldhl	sp,	#0
      000004 4D                      83 	ld	c, l
      000005 44                      84 	ld	b, h
      000006 36 12                   85 	ld	(hl), #0x12
      000008 69                      86 	ld	l, c
                                     87 ;	spillPairReg hl
                                     88 ;	spillPairReg hl
      000009 60                      89 	ld	h, b
                                     90 ;	spillPairReg hl
                                     91 ;	spillPairReg hl
      00000A 23                      92 	inc	hl
      00000B 36 22                   93 	ld	(hl), #0x22
      00000D 69                      94 	ld	l, c
                                     95 ;	spillPairReg hl
                                     96 ;	spillPairReg hl
      00000E 60                      97 	ld	h, b
                                     98 ;	spillPairReg hl
                                     99 ;	spillPairReg hl
      00000F 23                     100 	inc	hl
      000010 23                     101 	inc	hl
      000011 36 32                  102 	ld	(hl), #0x32
                                    103 ;D:\Business\LaroldsJubilantJunkyard\game-remakes\space-invaders\source\main\default\States\Gameplay\invaders.c:19: for(UINT8 i=0;i<40;i++){
      000013 F8 03                  104 	ldhl	sp,	#3
      000015 79                     105 	ld	a, c
      000016 22                     106 	ld	(hl+), a
      000017 70                     107 	ld	(hl), b
      000018 F8 0E                  108 	ldhl	sp,	#14
      00001A 36 00                  109 	ld	(hl), #0x00
      00001C                        110 00103$:
      00001C F8 0E                  111 	ldhl	sp,	#14
      00001E 7E                     112 	ld	a, (hl)
      00001F D6 28                  113 	sub	a, #0x28
      000021 D2r0Fr01               114 	jp	NC, 00101$
                                    115 ;D:\Business\LaroldsJubilantJunkyard\game-remakes\space-invaders\source\main\default\States\Gameplay\invaders.c:20: invaders[i].column=(i%8)*2+2;
      000024 4E                     116 	ld	c, (hl)
      000025 06 00                  117 	ld	b, #0x00
      000027 69                     118 	ld	l, c
      000028 60                     119 	ld	h, b
      000029 29                     120 	add	hl, hl
      00002A 29                     121 	add	hl, hl
      00002B 09                     122 	add	hl, bc
      00002C 01r00r00               123 	ld	bc,#_invaders
      00002F 09                     124 	add	hl,bc
      000030 E5                     125 	push	hl
      000031 7D                     126 	ld	a, l
      000032 F8 07                  127 	ldhl	sp,	#7
      000034 77                     128 	ld	(hl), a
      000035 E1                     129 	pop	hl
      000036 7C                     130 	ld	a, h
      000037 F8 06                  131 	ldhl	sp,	#6
      000039 77                     132 	ld	(hl), a
      00003A F8 0E                  133 	ldhl	sp,	#14
      00003C 7E                     134 	ld	a, (hl)
      00003D F8 07                  135 	ldhl	sp,	#7
      00003F 22                     136 	ld	(hl+), a
      000040 AF                     137 	xor	a, a
      000041 32                     138 	ld	(hl-), a
      000042 3A                     139 	ld	a, (hl-)
      000043 E6 07                  140 	and	a, #0x07
      000045 87                     141 	add	a, a
      000046 C6 02                  142 	add	a, #0x02
      000048 4F                     143 	ld	c, a
      000049 3A                     144 	ld	a, (hl-)
      00004A 6E                     145 	ld	l, (hl)
      00004B 67                     146 	ld	h, a
      00004C 71                     147 	ld	(hl), c
                                    148 ;D:\Business\LaroldsJubilantJunkyard\game-remakes\space-invaders\source\main\default\States\Gameplay\invaders.c:21: invaders[i].row=(i/8)+2;
      00004D F8 05                  149 	ldhl	sp,#5
      00004F 2A                     150 	ld	a, (hl+)
      000050 5F                     151 	ld	e, a
      000051 56                     152 	ld	d, (hl)
      000052 6B                     153 	ld	l, e
      000053 62                     154 	ld	h, d
      000054 23                     155 	inc	hl
      000055 E5                     156 	push	hl
      000056 7D                     157 	ld	a, l
      000057 F8 0B                  158 	ldhl	sp,	#11
      000059 77                     159 	ld	(hl), a
      00005A E1                     160 	pop	hl
      00005B 7C                     161 	ld	a, h
      00005C F8 0A                  162 	ldhl	sp,	#10
      00005E 77                     163 	ld	(hl), a
      00005F F8 07                  164 	ldhl	sp,	#7
      000061 2A                     165 	ld	a, (hl+)
      000062 4F                     166 	ld	c, a
      000063 7E                     167 	ld	a,(hl)
      000064 47                     168 	ld	b,a
      000065 07                     169 	rlca
      000066 E6 01                  170 	and	a,#0x01
      000068 F8 0B                  171 	ldhl	sp,	#11
      00006A 77                     172 	ld	(hl), a
      00006B B7                     173 	or	a, a
      00006C 28 0B                  174 	jr	Z, 00107$
      00006E F8 07                  175 	ldhl	sp,#7
      000070 2A                     176 	ld	a, (hl+)
      000071 5F                     177 	ld	e, a
      000072 56                     178 	ld	d, (hl)
      000073 21 07 00               179 	ld	hl, #0x0007
      000076 19                     180 	add	hl, de
      000077 4D                     181 	ld	c, l
      000078 44                     182 	ld	b, h
      000079                        183 00107$:
      000079 CB 28                  184 	sra	b
      00007B CB 19                  185 	rr	c
      00007D CB 28                  186 	sra	b
      00007F CB 19                  187 	rr	c
      000081 CB 28                  188 	sra	b
      000083 CB 19                  189 	rr	c
      000085 0C                     190 	inc	c
      000086 0C                     191 	inc	c
      000087 F8 09                  192 	ldhl	sp,	#9
      000089 2A                     193 	ld	a,	(hl+)
      00008A 66                     194 	ld	h, (hl)
      00008B 6F                     195 	ld	l, a
      00008C 71                     196 	ld	(hl), c
                                    197 ;D:\Business\LaroldsJubilantJunkyard\game-remakes\space-invaders\source\main\default\States\Gameplay\invaders.c:22: invaders[i].slide=0;
      00008D F8 05                  198 	ldhl	sp,#5
      00008F 2A                     199 	ld	a, (hl+)
      000090 5F                     200 	ld	e, a
      000091 56                     201 	ld	d, (hl)
      000092 21 04 00               202 	ld	hl, #0x0004
      000095 19                     203 	add	hl, de
      000096 4D                     204 	ld	c, l
      000097 44                     205 	ld	b, h
      000098 AF                     206 	xor	a, a
      000099 02                     207 	ld	(bc), a
                                    208 ;D:\Business\LaroldsJubilantJunkyard\game-remakes\space-invaders\source\main\default\States\Gameplay\invaders.c:23: invaders[i].active=1;
      00009A F8 05                  209 	ldhl	sp,	#5
      00009C 2A                     210 	ld	a, (hl+)
      00009D 4F                     211 	ld	c, a
                                    212 ;D:\Business\LaroldsJubilantJunkyard\game-remakes\space-invaders\source\main\default\States\Gameplay\invaders.c:24: invaders[i].originalTile=alienTypes[i/16];
      00009E 3A                     213 	ld	a, (hl-)
      00009F 47                     214 	ld	b, a
      0000A0 03                     215 	inc	bc
      0000A1 03                     216 	inc	bc
      0000A2 3E 01                  217 	ld	a, #0x01
      0000A4 02                     218 	ld	(bc), a
      0000A5 2A                     219 	ld	a, (hl+)
      0000A6 5F                     220 	ld	e, a
      0000A7 56                     221 	ld	d, (hl)
      0000A8 21 03 00               222 	ld	hl, #0x0003
      0000AB 19                     223 	add	hl, de
      0000AC E5                     224 	push	hl
      0000AD 7D                     225 	ld	a, l
      0000AE F8 0E                  226 	ldhl	sp,	#14
      0000B0 77                     227 	ld	(hl), a
      0000B1 E1                     228 	pop	hl
      0000B2 7C                     229 	ld	a, h
      0000B3 F8 0D                  230 	ldhl	sp,	#13
      0000B5 77                     231 	ld	(hl), a
      0000B6 F8 07                  232 	ldhl	sp,	#7
      0000B8 2A                     233 	ld	a, (hl+)
      0000B9 4F                     234 	ld	c, a
      0000BA 46                     235 	ld	b, (hl)
      0000BB F8 0B                  236 	ldhl	sp,	#11
      0000BD 7E                     237 	ld	a, (hl)
      0000BE B7                     238 	or	a, a
      0000BF 28 0B                  239 	jr	Z, 00108$
      0000C1 F8 07                  240 	ldhl	sp,#7
      0000C3 2A                     241 	ld	a, (hl+)
      0000C4 5F                     242 	ld	e, a
      0000C5 56                     243 	ld	d, (hl)
      0000C6 21 0F 00               244 	ld	hl, #0x000f
      0000C9 19                     245 	add	hl, de
      0000CA 4D                     246 	ld	c, l
      0000CB 44                     247 	ld	b, h
      0000CC                        248 00108$:
      0000CC CB 28                  249 	sra	b
      0000CE CB 19                  250 	rr	c
      0000D0 CB 28                  251 	sra	b
      0000D2 CB 19                  252 	rr	c
      0000D4 CB 28                  253 	sra	b
      0000D6 CB 19                  254 	rr	c
      0000D8 CB 28                  255 	sra	b
      0000DA CB 19                  256 	rr	c
      0000DC F8 03                  257 	ldhl	sp,	#3
      0000DE 2A                     258 	ld	a,	(hl+)
      0000DF 66                     259 	ld	h, (hl)
      0000E0 6F                     260 	ld	l, a
      0000E1 09                     261 	add	hl, bc
      0000E2 4D                     262 	ld	c, l
      0000E3 44                     263 	ld	b, h
      0000E4 0A                     264 	ld	a, (bc)
      0000E5 F8 0C                  265 	ldhl	sp,	#12
      0000E7 F5                     266 	push	af
      0000E8 2A                     267 	ld	a,	(hl+)
      0000E9 66                     268 	ld	h, (hl)
      0000EA 6F                     269 	ld	l, a
      0000EB F1                     270 	pop	af
      0000EC 77                     271 	ld	(hl), a
                                    272 ;D:\Business\LaroldsJubilantJunkyard\game-remakes\space-invaders\source\main\default\States\Gameplay\invaders.c:27: set_bkg_tile_xy(invaders[i].column,invaders[i].row,invaders[i].originalTile);
      0000ED F8 09                  273 	ldhl	sp,#9
      0000EF 5E                     274 	ld	e, (hl)
      0000F0 23                     275 	inc	hl
      0000F1 56                     276 	ld	d, (hl)
      0000F2 F5                     277 	push	af
      0000F3 1A                     278 	ld	a, (de)
      0000F4 4F                     279 	ld	c, a
      0000F5 F1                     280 	pop	af
      0000F6 F8 05                  281 	ldhl	sp,#5
      0000F8 5E                     282 	ld	e, (hl)
      0000F9 23                     283 	inc	hl
      0000FA 56                     284 	ld	d, (hl)
      0000FB F5                     285 	push	af
      0000FC 1A                     286 	ld	a, (de)
      0000FD 6F                     287 	ld	l, a
                                    288 ;	spillPairReg hl
                                    289 ;	spillPairReg hl
      0000FE F1                     290 	pop	af
      0000FF 47                     291 	ld	b, a
      000100 C5                     292 	push	bc
      000101 7D                     293 	ld	a, l
      000102 F5                     294 	push	af
      000103 33                     295 	inc	sp
      000104 CDr00r00               296 	call	_set_bkg_tile_xy
      000107 E8 03                  297 	add	sp, #3
                                    298 ;D:\Business\LaroldsJubilantJunkyard\game-remakes\space-invaders\source\main\default\States\Gameplay\invaders.c:19: for(UINT8 i=0;i<40;i++){
      000109 F8 0E                  299 	ldhl	sp,	#14
      00010B 34                     300 	inc	(hl)
      00010C C3r1Cr00               301 	jp	00103$
      00010F                        302 00101$:
                                    303 ;D:\Business\LaroldsJubilantJunkyard\game-remakes\space-invaders\source\main\default\States\Gameplay\invaders.c:31: topRow=2;
      00010F 21rCAr00               304 	ld	hl, #_topRow
      000112 36 02                  305 	ld	(hl), #0x02
                                    306 ;D:\Business\LaroldsJubilantJunkyard\game-remakes\space-invaders\source\main\default\States\Gameplay\invaders.c:32: shotTimer=SHOT_TIMER_MAX;
      000114 21rCCr00               307 	ld	hl, #_shotTimer
      000117 36 32                  308 	ld	(hl), #0x32
                                    309 ;D:\Business\LaroldsJubilantJunkyard\game-remakes\space-invaders\source\main\default\States\Gameplay\invaders.c:33: slideDir=-1;
      000119 21r00r00               310 	ld	hl, #_slideDir
      00011C 36 FF                  311 	ld	(hl), #0xff
                                    312 ;D:\Business\LaroldsJubilantJunkyard\game-remakes\space-invaders\source\main\default\States\Gameplay\invaders.c:34: invaderCounter=0;
      00011E 21rC9r00               313 	ld	hl, #_invaderCounter
      000121 36 00                  314 	ld	(hl), #0x00
                                    315 ;D:\Business\LaroldsJubilantJunkyard\game-remakes\space-invaders\source\main\default\States\Gameplay\invaders.c:35: invaderSpeed=3;
      000123 21rC8r00               316 	ld	hl, #_invaderSpeed
      000126 36 03                  317 	ld	(hl), #0x03
                                    318 ;D:\Business\LaroldsJubilantJunkyard\game-remakes\space-invaders\source\main\default\States\Gameplay\invaders.c:36: invadersRemaining=40;
      000128 21rCBr00               319 	ld	hl, #_invadersRemaining
      00012B 36 28                  320 	ld	(hl), #0x28
                                    321 ;D:\Business\LaroldsJubilantJunkyard\game-remakes\space-invaders\source\main\default\States\Gameplay\invaders.c:37: }
      00012D E8 0F                  322 	add	sp, #15
      00012F C9                     323 	ret
      000130                        324 _tiles:
      000130 19                     325 	.db #0x19	; 25
      000131 12                     326 	.db #0x12	; 18
      000132 13                     327 	.db #0x13	; 19
      000133 14                     328 	.db #0x14	; 20
      000134 15                     329 	.db #0x15	; 21
      000135 16                     330 	.db #0x16	; 22
      000136 17                     331 	.db #0x17	; 23
      000137 18                     332 	.db #0x18	; 24
      000138 19                     333 	.db #0x19	; 25
                                    334 ;D:\Business\LaroldsJubilantJunkyard\game-remakes\space-invaders\source\main\default\States\Gameplay\invaders.c:39: void InvaderCheckPlayerCollision(UINT8 i){
                                    335 ;	---------------------------------
                                    336 ; Function InvaderCheckPlayerCollision
                                    337 ; ---------------------------------
      000139                        338 _InvaderCheckPlayerCollision::
      000139 3B                     339 	dec	sp
      00013A 3B                     340 	dec	sp
                                    341 ;D:\Business\LaroldsJubilantJunkyard\game-remakes\space-invaders\source\main\default\States\Gameplay\invaders.c:41: UINT8 playerColumn=paddle.x/8;
      00013B FAr00r00               342 	ld	a, (#_paddle + 0)
      00013E 4F                     343 	ld	c, a
      00013F 06 00                  344 	ld	b, #0x00
      000141 69                     345 	ld	l, c
                                    346 ;	spillPairReg hl
                                    347 ;	spillPairReg hl
      000142 60                     348 	ld	h, b
                                    349 ;	spillPairReg hl
                                    350 ;	spillPairReg hl
      000143 CB 78                  351 	bit	7, b
      000145 28 04                  352 	jr	Z, 00106$
      000147 21 07 00               353 	ld	hl, #0x0007
      00014A 09                     354 	add	hl, bc
      00014B                        355 00106$:
      00014B 4D                     356 	ld	c, l
      00014C 44                     357 	ld	b, h
      00014D CB 28                  358 	sra	b
      00014F CB 19                  359 	rr	c
      000151 CB 28                  360 	sra	b
      000153 CB 19                  361 	rr	c
      000155 CB 28                  362 	sra	b
      000157 CB 19                  363 	rr	c
      000159 F8 00                  364 	ldhl	sp,	#0
      00015B 71                     365 	ld	(hl), c
                                    366 ;D:\Business\LaroldsJubilantJunkyard\game-remakes\space-invaders\source\main\default\States\Gameplay\invaders.c:42: UINT8 playerRow=paddle.y/8;
      00015C FAr01r00               367 	ld	a, (#(_paddle + 1) + 0)
      00015F 4F                     368 	ld	c, a
      000160 06 00                  369 	ld	b, #0x00
      000162 69                     370 	ld	l, c
                                    371 ;	spillPairReg hl
                                    372 ;	spillPairReg hl
      000163 60                     373 	ld	h, b
                                    374 ;	spillPairReg hl
                                    375 ;	spillPairReg hl
      000164 CB 78                  376 	bit	7, b
      000166 28 04                  377 	jr	Z, 00107$
      000168 21 07 00               378 	ld	hl, #0x0007
      00016B 09                     379 	add	hl, bc
      00016C                        380 00107$:
      00016C 4D                     381 	ld	c, l
      00016D 44                     382 	ld	b, h
      00016E CB 28                  383 	sra	b
      000170 CB 19                  384 	rr	c
      000172 CB 28                  385 	sra	b
      000174 CB 19                  386 	rr	c
      000176 CB 28                  387 	sra	b
      000178 CB 19                  388 	rr	c
      00017A F8 01                  389 	ldhl	sp,	#1
      00017C 71                     390 	ld	(hl), c
                                    391 ;D:\Business\LaroldsJubilantJunkyard\game-remakes\space-invaders\source\main\default\States\Gameplay\invaders.c:44: if((playerColumn==invaders[i].column&&playerRow==invaders[i].row)){
      00017D F8 04                  392 	ldhl	sp,	#4
      00017F 4E                     393 	ld	c, (hl)
      000180 06 00                  394 	ld	b, #0x00
      000182 69                     395 	ld	l, c
      000183 60                     396 	ld	h, b
      000184 29                     397 	add	hl, hl
      000185 29                     398 	add	hl, hl
      000186 09                     399 	add	hl, bc
      000187 01r00r00               400 	ld	bc,#_invaders
      00018A 09                     401 	add	hl,bc
      00018B 4D                     402 	ld	c, l
      00018C 44                     403 	ld	b, h
      00018D 0A                     404 	ld	a, (bc)
      00018E 5F                     405 	ld	e, a
      00018F F8 00                  406 	ldhl	sp,	#0
      000191 7E                     407 	ld	a, (hl)
      000192 93                     408 	sub	a, e
      000193 20 13                  409 	jr	NZ, 00104$
      000195 03                     410 	inc	bc
      000196 0A                     411 	ld	a, (bc)
      000197 4F                     412 	ld	c, a
      000198 F8 01                  413 	ldhl	sp,	#1
      00019A 7E                     414 	ld	a, (hl)
      00019B 91                     415 	sub	a, c
      00019C 20 0A                  416 	jr	NZ, 00104$
                                    417 ;D:\Business\LaroldsJubilantJunkyard\game-remakes\space-invaders\source\main\default\States\Gameplay\invaders.c:45: paddle.dead=1;
      00019E 21r02r00               418 	ld	hl, #(_paddle + 2)
      0001A1 36 01                  419 	ld	(hl), #0x01
                                    420 ;D:\Business\LaroldsJubilantJunkyard\game-remakes\space-invaders\source\main\default\States\Gameplay\invaders.c:46: paddle.lives=0;
      0001A3 21r03r00               421 	ld	hl, #(_paddle + 3)
      0001A6 36 00                  422 	ld	(hl), #0x00
      0001A8                        423 00104$:
                                    424 ;D:\Business\LaroldsJubilantJunkyard\game-remakes\space-invaders\source\main\default\States\Gameplay\invaders.c:48: }
      0001A8 33                     425 	inc	sp
      0001A9 33                     426 	inc	sp
      0001AA C9                     427 	ret
                                    428 ;D:\Business\LaroldsJubilantJunkyard\game-remakes\space-invaders\source\main\default\States\Gameplay\invaders.c:50: void InvaderCheckBulletCollision(UINT8 i){
                                    429 ;	---------------------------------
                                    430 ; Function InvaderCheckBulletCollision
                                    431 ; ---------------------------------
      0001AB                        432 _InvaderCheckBulletCollision::
      0001AB 3B                     433 	dec	sp
      0001AC 3B                     434 	dec	sp
                                    435 ;D:\Business\LaroldsJubilantJunkyard\game-remakes\space-invaders\source\main\default\States\Gameplay\invaders.c:52: if(PlayerBulletSprite.tile!=0){
      0001AD FAr0Ar00               436 	ld	a, (#(_shadow_OAM + 10) + 0)
      0001B0 B7                     437 	or	a, a
      0001B1 28 71                  438 	jr	Z, 00110$
                                    439 ;D:\Business\LaroldsJubilantJunkyard\game-remakes\space-invaders\source\main\default\States\Gameplay\invaders.c:54: INT8 xd = (PlayerBulletSprite.x-4)-(invaders[i].column*8+4+(invaders[i].slide*2));
      0001B3 FAr09r00               440 	ld	a, (#(_shadow_OAM + 9) + 0)
      0001B6 C6 FC                  441 	add	a, #0xfc
      0001B8 F8 01                  442 	ldhl	sp,	#1
      0001BA 77                     443 	ld	(hl), a
      0001BB F8 04                  444 	ldhl	sp,	#4
      0001BD 4E                     445 	ld	c, (hl)
      0001BE 06 00                  446 	ld	b, #0x00
      0001C0 69                     447 	ld	l, c
      0001C1 60                     448 	ld	h, b
      0001C2 29                     449 	add	hl, hl
      0001C3 29                     450 	add	hl, hl
      0001C4 09                     451 	add	hl, bc
      0001C5 01r00r00               452 	ld	bc,#_invaders
      0001C8 09                     453 	add	hl,bc
      0001C9 4D                     454 	ld	c, l
      0001CA 44                     455 	ld	b, h
      0001CB 0A                     456 	ld	a, (bc)
      0001CC 87                     457 	add	a, a
      0001CD 87                     458 	add	a, a
      0001CE 87                     459 	add	a, a
      0001CF C6 04                  460 	add	a, #0x04
      0001D1 5F                     461 	ld	e, a
      0001D2 21 04 00               462 	ld	hl, #0x0004
      0001D5 09                     463 	add	hl, bc
      0001D6 7E                     464 	ld	a, (hl)
      0001D7 87                     465 	add	a, a
      0001D8 83                     466 	add	a, e
      0001D9 5F                     467 	ld	e, a
      0001DA F8 01                  468 	ldhl	sp,	#1
      0001DC 3A                     469 	ld	a, (hl-)
      0001DD 93                     470 	sub	a, e
                                    471 ;D:\Business\LaroldsJubilantJunkyard\game-remakes\space-invaders\source\main\default\States\Gameplay\invaders.c:55: INT8 yd = (PlayerBulletSprite.y-12)-invaders[i].row*8+4;
      0001DE 22                     472 	ld	(hl+), a
      0001DF 59                     473 	ld	e, c
      0001E0 50                     474 	ld	d, b
      0001E1 13                     475 	inc	de
      0001E2 1A                     476 	ld	a, (de)
      0001E3 87                     477 	add	a, a
      0001E4 87                     478 	add	a, a
      0001E5 87                     479 	add	a, a
      0001E6 5F                     480 	ld	e, a
      0001E7 3E F8                  481 	ld	a, #0xf8
      0001E9 93                     482 	sub	a, e
      0001EA 77                     483 	ld	(hl), a
      0001EB FAr08r00               484 	ld	a, (#(_shadow_OAM + 8) + 0)
      0001EE 86                     485 	add	a, (hl)
                                    486 ;D:\Business\LaroldsJubilantJunkyard\game-remakes\space-invaders\source\main\default\States\Gameplay\invaders.c:57: if(xd<0)xd=-xd;
      0001EF 32                     487 	ld	(hl-), a
      0001F0 CB 7E                  488 	bit	7, (hl)
      0001F2 28 03                  489 	jr	Z, 00102$
      0001F4 AF                     490 	xor	a, a
      0001F5 96                     491 	sub	a, (hl)
      0001F6 77                     492 	ld	(hl), a
      0001F7                        493 00102$:
                                    494 ;D:\Business\LaroldsJubilantJunkyard\game-remakes\space-invaders\source\main\default\States\Gameplay\invaders.c:58: if(yd<0)yd=-yd;
      0001F7 F8 01                  495 	ldhl	sp,	#1
      0001F9 CB 7E                  496 	bit	7, (hl)
      0001FB 28 03                  497 	jr	Z, 00104$
      0001FD AF                     498 	xor	a, a
      0001FE 96                     499 	sub	a, (hl)
      0001FF 77                     500 	ld	(hl), a
      000200                        501 00104$:
                                    502 ;D:\Business\LaroldsJubilantJunkyard\game-remakes\space-invaders\source\main\default\States\Gameplay\invaders.c:60: if(xd<5&&yd<8){
      000200 F8 00                  503 	ldhl	sp,	#0
      000202 7E                     504 	ld	a, (hl)
      000203 EE 80                  505 	xor	a, #0x80
      000205 D6 85                  506 	sub	a, #0x85
      000207 30 1B                  507 	jr	NC, 00110$
      000209 23                     508 	inc	hl
      00020A 7E                     509 	ld	a, (hl)
      00020B EE 80                  510 	xor	a, #0x80
      00020D D6 88                  511 	sub	a, #0x88
      00020F 30 13                  512 	jr	NC, 00110$
                                    513 ;D:\Business\LaroldsJubilantJunkyard\game-remakes\space-invaders\source\main\default\States\Gameplay\invaders.c:62: IncreaseScore(10);
      000211 C5                     514 	push	bc
      000212 3E 0A                  515 	ld	a, #0x0a
      000214 F5                     516 	push	af
      000215 33                     517 	inc	sp
      000216 CDr00r00               518 	call	_IncreaseScore
      000219 33                     519 	inc	sp
      00021A C1                     520 	pop	bc
                                    521 ;D:\Business\LaroldsJubilantJunkyard\game-remakes\space-invaders\source\main\default\States\Gameplay\invaders.c:65: invaders[i].active=0;
      00021B 03                     522 	inc	bc
      00021C 03                     523 	inc	bc
      00021D AF                     524 	xor	a, a
      00021E 02                     525 	ld	(bc), a
                                    526 ;D:\Business\LaroldsJubilantJunkyard\game-remakes\space-invaders\source\main\default\States\Gameplay\invaders.c:68: PlayerBulletSprite.tile=0;
      00021F 21r0Ar00               527 	ld	hl, #(_shadow_OAM + 10)
      000222 36 00                  528 	ld	(hl), #0x00
      000224                        529 00110$:
                                    530 ;D:\Business\LaroldsJubilantJunkyard\game-remakes\space-invaders\source\main\default\States\Gameplay\invaders.c:72: }
      000224 33                     531 	inc	sp
      000225 33                     532 	inc	sp
      000226 C9                     533 	ret
                                    534 ;D:\Business\LaroldsJubilantJunkyard\game-remakes\space-invaders\source\main\default\States\Gameplay\invaders.c:74: void UpdateInvaderTiles(UINT8 i){
                                    535 ;	---------------------------------
                                    536 ; Function UpdateInvaderTiles
                                    537 ; ---------------------------------
      000227                        538 _UpdateInvaderTiles::
      000227 E8 F7                  539 	add	sp, #-9
                                    540 ;D:\Business\LaroldsJubilantJunkyard\game-remakes\space-invaders\source\main\default\States\Gameplay\invaders.c:77: if(invaders[i].active==0){
      000229 F8 0B                  541 	ldhl	sp,	#11
      00022B 4E                     542 	ld	c, (hl)
      00022C 06 00                  543 	ld	b, #0x00
      00022E 69                     544 	ld	l, c
      00022F 60                     545 	ld	h, b
      000230 29                     546 	add	hl, hl
      000231 29                     547 	add	hl, hl
      000232 09                     548 	add	hl, bc
      000233 01r00r00               549 	ld	bc,#_invaders
      000236 09                     550 	add	hl,bc
      000237 33                     551 	inc	sp
      000238 33                     552 	inc	sp
      000239 4D                     553 	ld	c, l
      00023A 44                     554 	ld	b, h
      00023B C5                     555 	push	bc
      00023C 03                     556 	inc	bc
      00023D 03                     557 	inc	bc
      00023E 0A                     558 	ld	a, (bc)
      00023F F8 08                  559 	ldhl	sp,	#8
      000241 77                     560 	ld	(hl), a
                                    561 ;D:\Business\LaroldsJubilantJunkyard\game-remakes\space-invaders\source\main\default\States\Gameplay\invaders.c:80: set_bkg_tile_xy(invaders[i].column,invaders[i].row,0);
      000242 D1                     562 	pop	de
      000243 D5                     563 	push	de
      000244 6B                     564 	ld	l, e
      000245 62                     565 	ld	h, d
      000246 23                     566 	inc	hl
      000247 E5                     567 	push	hl
      000248 7D                     568 	ld	a, l
      000249 F8 04                  569 	ldhl	sp,	#4
      00024B 77                     570 	ld	(hl), a
      00024C E1                     571 	pop	hl
      00024D 7C                     572 	ld	a, h
      00024E F8 03                  573 	ldhl	sp,	#3
      000250 77                     574 	ld	(hl), a
                                    575 ;D:\Business\LaroldsJubilantJunkyard\game-remakes\space-invaders\source\main\default\States\Gameplay\invaders.c:77: if(invaders[i].active==0){
      000251 F8 08                  576 	ldhl	sp,	#8
      000253 7E                     577 	ld	a, (hl)
      000254 B7                     578 	or	a, a
      000255 20 39                  579 	jr	NZ, 00110$
                                    580 ;D:\Business\LaroldsJubilantJunkyard\game-remakes\space-invaders\source\main\default\States\Gameplay\invaders.c:80: set_bkg_tile_xy(invaders[i].column,invaders[i].row,0);
      000257 F8 02                  581 	ldhl	sp,#2
      000259 2A                     582 	ld	a, (hl+)
      00025A 5F                     583 	ld	e, a
      00025B 56                     584 	ld	d, (hl)
      00025C 1A                     585 	ld	a, (de)
      00025D 4F                     586 	ld	c, a
      00025E D1                     587 	pop	de
      00025F D5                     588 	push	de
      000260 1A                     589 	ld	a, (de)
      000261 26 00                  590 	ld	h, #0x00
                                    591 ;	spillPairReg hl
                                    592 ;	spillPairReg hl
      000263 E5                     593 	push	hl
      000264 33                     594 	inc	sp
      000265 61                     595 	ld	h, c
                                    596 ;	spillPairReg hl
                                    597 ;	spillPairReg hl
      000266 E5                     598 	push	hl
      000267 33                     599 	inc	sp
      000268 F5                     600 	push	af
      000269 33                     601 	inc	sp
      00026A CDr00r00               602 	call	_set_bkg_tile_xy
      00026D E8 03                  603 	add	sp, #3
                                    604 ;D:\Business\LaroldsJubilantJunkyard\game-remakes\space-invaders\source\main\default\States\Gameplay\invaders.c:81: set_bkg_tile_xy(invaders[i].column+1,invaders[i].row,0);
      00026F F8 02                  605 	ldhl	sp,#2
      000271 2A                     606 	ld	a, (hl+)
      000272 5F                     607 	ld	e, a
      000273 56                     608 	ld	d, (hl)
      000274 1A                     609 	ld	a, (de)
      000275 F8 08                  610 	ldhl	sp,	#8
      000277 32                     611 	ld	(hl-), a
      000278 D1                     612 	pop	de
      000279 D5                     613 	push	de
      00027A 1A                     614 	ld	a, (de)
      00027B 77                     615 	ld	(hl), a
      00027C 3C                     616 	inc	a
      00027D 26 00                  617 	ld	h, #0x00
                                    618 ;	spillPairReg hl
                                    619 ;	spillPairReg hl
      00027F E5                     620 	push	hl
      000280 33                     621 	inc	sp
      000281 F8 09                  622 	ldhl	sp,	#9
      000283 66                     623 	ld	h, (hl)
                                    624 ;	spillPairReg hl
                                    625 ;	spillPairReg hl
      000284 E5                     626 	push	hl
      000285 33                     627 	inc	sp
      000286 F5                     628 	push	af
      000287 33                     629 	inc	sp
      000288 CDr00r00               630 	call	_set_bkg_tile_xy
      00028B E8 03                  631 	add	sp, #3
      00028D C3rA0r03               632 	jp	00112$
      000290                        633 00110$:
                                    634 ;D:\Business\LaroldsJubilantJunkyard\game-remakes\space-invaders\source\main\default\States\Gameplay\invaders.c:84: }else if(invaders[i].slide==0){
      000290 D1                     635 	pop	de
      000291 D5                     636 	push	de
      000292 21 04 00               637 	ld	hl, #0x0004
      000295 19                     638 	add	hl, de
      000296 E5                     639 	push	hl
      000297 7D                     640 	ld	a, l
      000298 F8 06                  641 	ldhl	sp,	#6
      00029A 77                     642 	ld	(hl), a
      00029B E1                     643 	pop	hl
      00029C 7C                     644 	ld	a, h
      00029D F8 05                  645 	ldhl	sp,	#5
      00029F 32                     646 	ld	(hl-), a
      0002A0 2A                     647 	ld	a, (hl+)
      0002A1 5F                     648 	ld	e, a
      0002A2 2A                     649 	ld	a, (hl+)
      0002A3 57                     650 	ld	d, a
      0002A4 1A                     651 	ld	a, (de)
      0002A5 77                     652 	ld	(hl), a
                                    653 ;D:\Business\LaroldsJubilantJunkyard\game-remakes\space-invaders\source\main\default\States\Gameplay\invaders.c:86: set_bkg_tile_xy(invaders[i].column,invaders[i].row,invaders[i].originalTile);
      0002A6 D1                     654 	pop	de
      0002A7 D5                     655 	push	de
      0002A8 21 03 00               656 	ld	hl, #0x0003
      0002AB 19                     657 	add	hl, de
      0002AC E5                     658 	push	hl
      0002AD 7D                     659 	ld	a, l
      0002AE F8 09                  660 	ldhl	sp,	#9
      0002B0 77                     661 	ld	(hl), a
      0002B1 E1                     662 	pop	hl
      0002B2 7C                     663 	ld	a, h
      0002B3 F8 08                  664 	ldhl	sp,	#8
                                    665 ;D:\Business\LaroldsJubilantJunkyard\game-remakes\space-invaders\source\main\default\States\Gameplay\invaders.c:84: }else if(invaders[i].slide==0){
      0002B5 32                     666 	ld	(hl-), a
      0002B6 2B                     667 	dec	hl
      0002B7 7E                     668 	ld	a, (hl)
      0002B8 B7                     669 	or	a, a
      0002B9 20 36                  670 	jr	NZ, 00107$
                                    671 ;D:\Business\LaroldsJubilantJunkyard\game-remakes\space-invaders\source\main\default\States\Gameplay\invaders.c:86: set_bkg_tile_xy(invaders[i].column,invaders[i].row,invaders[i].originalTile);
      0002BB 23                     672 	inc	hl
      0002BC 2A                     673 	ld	a, (hl+)
      0002BD 5F                     674 	ld	e, a
      0002BE 56                     675 	ld	d, (hl)
      0002BF 1A                     676 	ld	a, (de)
      0002C0 4F                     677 	ld	c, a
      0002C1 F8 02                  678 	ldhl	sp,#2
      0002C3 2A                     679 	ld	a, (hl+)
      0002C4 5F                     680 	ld	e, a
      0002C5 56                     681 	ld	d, (hl)
      0002C6 1A                     682 	ld	a, (de)
      0002C7 47                     683 	ld	b, a
      0002C8 D1                     684 	pop	de
      0002C9 D5                     685 	push	de
      0002CA 1A                     686 	ld	a, (de)
      0002CB 61                     687 	ld	h, c
                                    688 ;	spillPairReg hl
                                    689 ;	spillPairReg hl
      0002CC 68                     690 	ld	l, b
      0002CD E5                     691 	push	hl
      0002CE F5                     692 	push	af
      0002CF 33                     693 	inc	sp
      0002D0 CDr00r00               694 	call	_set_bkg_tile_xy
      0002D3 E8 03                  695 	add	sp, #3
                                    696 ;D:\Business\LaroldsJubilantJunkyard\game-remakes\space-invaders\source\main\default\States\Gameplay\invaders.c:87: set_bkg_tile_xy(invaders[i].column-slideDir,invaders[i].row,0);
      0002D5 F8 02                  697 	ldhl	sp,#2
      0002D7 2A                     698 	ld	a, (hl+)
      0002D8 5F                     699 	ld	e, a
      0002D9 56                     700 	ld	d, (hl)
      0002DA 1A                     701 	ld	a, (de)
      0002DB 47                     702 	ld	b, a
      0002DC D1                     703 	pop	de
      0002DD D5                     704 	push	de
      0002DE 1A                     705 	ld	a, (de)
      0002DF 21r00r00               706 	ld	hl, #_slideDir
      0002E2 96                     707 	sub	a, (hl)
      0002E3 26 00                  708 	ld	h, #0x00
                                    709 ;	spillPairReg hl
                                    710 ;	spillPairReg hl
      0002E5 68                     711 	ld	l, b
      0002E6 E5                     712 	push	hl
      0002E7 F5                     713 	push	af
      0002E8 33                     714 	inc	sp
      0002E9 CDr00r00               715 	call	_set_bkg_tile_xy
      0002EC E8 03                  716 	add	sp, #3
      0002EE C3rA0r03               717 	jp	00112$
      0002F1                        718 00107$:
                                    719 ;D:\Business\LaroldsJubilantJunkyard\game-remakes\space-invaders\source\main\default\States\Gameplay\invaders.c:90: } else if(invaders[i].slide>0){
      0002F1 F8 06                  720 	ldhl	sp,	#6
      0002F3 5E                     721 	ld	e, (hl)
      0002F4 AF                     722 	xor	a, a
      0002F5 57                     723 	ld	d, a
      0002F6 96                     724 	sub	a, (hl)
      0002F7 CB 7B                  725 	bit	7, e
      0002F9 28 07                  726 	jr	Z, 00134$
      0002FB CB 7A                  727 	bit	7, d
      0002FD 20 08                  728 	jr	NZ, 00135$
      0002FF BF                     729 	cp	a, a
      000300 18 05                  730 	jr	00135$
      000302                        731 00134$:
      000302 CB 7A                  732 	bit	7, d
      000304 28 01                  733 	jr	Z, 00135$
      000306 37                     734 	scf
      000307                        735 00135$:
      000307 30 4B                  736 	jr	NC, 00104$
                                    737 ;D:\Business\LaroldsJubilantJunkyard\game-remakes\space-invaders\source\main\default\States\Gameplay\invaders.c:93: set_bkg_tile_xy(invaders[i].column,invaders[i].row,invaders[i].originalTile+16-invaders[i].slide);
      000309 F8 07                  738 	ldhl	sp,#7
      00030B 2A                     739 	ld	a, (hl+)
      00030C 5F                     740 	ld	e, a
      00030D 3A                     741 	ld	a, (hl-)
      00030E 2B                     742 	dec	hl
      00030F 57                     743 	ld	d, a
      000310 1A                     744 	ld	a, (de)
      000311 C6 10                  745 	add	a, #0x10
      000313 96                     746 	sub	a, (hl)
      000314 4F                     747 	ld	c, a
      000315 F8 02                  748 	ldhl	sp,#2
      000317 2A                     749 	ld	a, (hl+)
      000318 5F                     750 	ld	e, a
      000319 56                     751 	ld	d, (hl)
      00031A 1A                     752 	ld	a, (de)
      00031B 47                     753 	ld	b, a
      00031C D1                     754 	pop	de
      00031D D5                     755 	push	de
      00031E 1A                     756 	ld	a, (de)
      00031F 61                     757 	ld	h, c
                                    758 ;	spillPairReg hl
                                    759 ;	spillPairReg hl
      000320 68                     760 	ld	l, b
      000321 E5                     761 	push	hl
      000322 F5                     762 	push	af
      000323 33                     763 	inc	sp
      000324 CDr00r00               764 	call	_set_bkg_tile_xy
      000327 E8 03                  765 	add	sp, #3
                                    766 ;D:\Business\LaroldsJubilantJunkyard\game-remakes\space-invaders\source\main\default\States\Gameplay\invaders.c:94: set_bkg_tile_xy(invaders[i].column+1,invaders[i].row,invaders[i].originalTile+8-invaders[i].slide);
      000329 F8 07                  767 	ldhl	sp,#7
      00032B 2A                     768 	ld	a, (hl+)
      00032C 5F                     769 	ld	e, a
      00032D 56                     770 	ld	d, (hl)
      00032E 1A                     771 	ld	a, (de)
      00032F C6 08                  772 	add	a, #0x08
      000331 F8 04                  773 	ldhl	sp,#4
      000333 5E                     774 	ld	e, (hl)
      000334 23                     775 	inc	hl
      000335 56                     776 	ld	d, (hl)
      000336 2B                     777 	dec	hl
      000337 2B                     778 	dec	hl
      000338 2B                     779 	dec	hl
      000339 F5                     780 	push	af
      00033A 1A                     781 	ld	a, (de)
      00033B 4F                     782 	ld	c, a
      00033C F1                     783 	pop	af
      00033D 91                     784 	sub	a, c
      00033E 4F                     785 	ld	c, a
      00033F 2A                     786 	ld	a, (hl+)
      000340 5F                     787 	ld	e, a
      000341 56                     788 	ld	d, (hl)
      000342 1A                     789 	ld	a, (de)
      000343 47                     790 	ld	b, a
      000344 D1                     791 	pop	de
      000345 D5                     792 	push	de
      000346 1A                     793 	ld	a, (de)
      000347 3C                     794 	inc	a
      000348 61                     795 	ld	h, c
                                    796 ;	spillPairReg hl
                                    797 ;	spillPairReg hl
      000349 68                     798 	ld	l, b
      00034A E5                     799 	push	hl
      00034B F5                     800 	push	af
      00034C 33                     801 	inc	sp
      00034D CDr00r00               802 	call	_set_bkg_tile_xy
      000350 E8 03                  803 	add	sp, #3
      000352 18 4C                  804 	jr	00112$
      000354                        805 00104$:
                                    806 ;D:\Business\LaroldsJubilantJunkyard\game-remakes\space-invaders\source\main\default\States\Gameplay\invaders.c:98: }else if(invaders[i].slide<0){
      000354 F8 06                  807 	ldhl	sp,	#6
      000356 CB 7E                  808 	bit	7, (hl)
      000358 28 46                  809 	jr	Z, 00112$
                                    810 ;D:\Business\LaroldsJubilantJunkyard\game-remakes\space-invaders\source\main\default\States\Gameplay\invaders.c:100: set_bkg_tile_xy(invaders[i].column,invaders[i].row,invaders[i].originalTile-invaders[i].slide);
      00035A 23                     811 	inc	hl
      00035B 2A                     812 	ld	a, (hl+)
      00035C 5F                     813 	ld	e, a
      00035D 3A                     814 	ld	a, (hl-)
      00035E 2B                     815 	dec	hl
      00035F 57                     816 	ld	d, a
      000360 1A                     817 	ld	a, (de)
      000361 96                     818 	sub	a, (hl)
      000362 4F                     819 	ld	c, a
      000363 F8 02                  820 	ldhl	sp,#2
      000365 2A                     821 	ld	a, (hl+)
      000366 5F                     822 	ld	e, a
      000367 56                     823 	ld	d, (hl)
      000368 1A                     824 	ld	a, (de)
      000369 47                     825 	ld	b, a
      00036A D1                     826 	pop	de
      00036B D5                     827 	push	de
      00036C 1A                     828 	ld	a, (de)
      00036D 61                     829 	ld	h, c
                                    830 ;	spillPairReg hl
                                    831 ;	spillPairReg hl
      00036E 68                     832 	ld	l, b
      00036F E5                     833 	push	hl
      000370 F5                     834 	push	af
      000371 33                     835 	inc	sp
      000372 CDr00r00               836 	call	_set_bkg_tile_xy
      000375 E8 03                  837 	add	sp, #3
                                    838 ;D:\Business\LaroldsJubilantJunkyard\game-remakes\space-invaders\source\main\default\States\Gameplay\invaders.c:101: set_bkg_tile_xy(invaders[i].column-1,invaders[i].row,invaders[i].originalTile+8-invaders[i].slide);
      000377 F8 07                  839 	ldhl	sp,#7
      000379 2A                     840 	ld	a, (hl+)
      00037A 5F                     841 	ld	e, a
      00037B 56                     842 	ld	d, (hl)
      00037C 1A                     843 	ld	a, (de)
      00037D C6 08                  844 	add	a, #0x08
      00037F F8 04                  845 	ldhl	sp,#4
      000381 5E                     846 	ld	e, (hl)
      000382 23                     847 	inc	hl
      000383 56                     848 	ld	d, (hl)
      000384 2B                     849 	dec	hl
      000385 2B                     850 	dec	hl
      000386 2B                     851 	dec	hl
      000387 F5                     852 	push	af
      000388 1A                     853 	ld	a, (de)
      000389 4F                     854 	ld	c, a
      00038A F1                     855 	pop	af
      00038B 91                     856 	sub	a, c
      00038C 4F                     857 	ld	c, a
      00038D 2A                     858 	ld	a, (hl+)
      00038E 5F                     859 	ld	e, a
      00038F 56                     860 	ld	d, (hl)
      000390 1A                     861 	ld	a, (de)
      000391 47                     862 	ld	b, a
      000392 D1                     863 	pop	de
      000393 D5                     864 	push	de
      000394 1A                     865 	ld	a, (de)
      000395 3D                     866 	dec	a
      000396 61                     867 	ld	h, c
                                    868 ;	spillPairReg hl
                                    869 ;	spillPairReg hl
      000397 68                     870 	ld	l, b
      000398 E5                     871 	push	hl
      000399 F5                     872 	push	af
      00039A 33                     873 	inc	sp
      00039B CDr00r00               874 	call	_set_bkg_tile_xy
      00039E E8 03                  875 	add	sp, #3
      0003A0                        876 00112$:
                                    877 ;D:\Business\LaroldsJubilantJunkyard\game-remakes\space-invaders\source\main\default\States\Gameplay\invaders.c:105: }
      0003A0 E8 09                  878 	add	sp, #9
      0003A2 C9                     879 	ret
                                    880 ;D:\Business\LaroldsJubilantJunkyard\game-remakes\space-invaders\source\main\default\States\Gameplay\invaders.c:107: UINT8 SlideInvader(UINT8 i){
                                    881 ;	---------------------------------
                                    882 ; Function SlideInvader
                                    883 ; ---------------------------------
      0003A3                        884 _SlideInvader::
      0003A3 E8 FC                  885 	add	sp, #-4
                                    886 ;D:\Business\LaroldsJubilantJunkyard\game-remakes\space-invaders\source\main\default\States\Gameplay\invaders.c:110: invaders[i].slide+=slideDir;
      0003A5 F8 06                  887 	ldhl	sp,	#6
      0003A7 4E                     888 	ld	c, (hl)
      0003A8 06 00                  889 	ld	b, #0x00
      0003AA 69                     890 	ld	l, c
      0003AB 60                     891 	ld	h, b
      0003AC 29                     892 	add	hl, hl
      0003AD 29                     893 	add	hl, hl
      0003AE 09                     894 	add	hl, bc
      0003AF 01r00r00               895 	ld	bc,#_invaders
      0003B2 09                     896 	add	hl,bc
      0003B3 4D                     897 	ld	c, l
      0003B4 44                     898 	ld	b, h
      0003B5 21 04 00               899 	ld	hl, #0x0004
      0003B8 09                     900 	add	hl, bc
      0003B9 33                     901 	inc	sp
      0003BA 33                     902 	inc	sp
      0003BB 5D                     903 	ld	e, l
      0003BC 54                     904 	ld	d, h
      0003BD D5                     905 	push	de
      0003BE 1A                     906 	ld	a, (de)
      0003BF 21r00r00               907 	ld	hl, #_slideDir
      0003C2 5E                     908 	ld	e, (hl)
      0003C3 83                     909 	add	a, e
      0003C4 F8 02                  910 	ldhl	sp,	#2
      0003C6 77                     911 	ld	(hl), a
      0003C7 D1                     912 	pop	de
      0003C8 D5                     913 	push	de
                                    914 ;D:\Business\LaroldsJubilantJunkyard\game-remakes\space-invaders\source\main\default\States\Gameplay\invaders.c:114: if(invaders[i].slide>7||invaders[i].slide<-7){
      0003C9 2A                     915 	ld	a, (hl+)
      0003CA 12                     916 	ld	(de), a
      0003CB D1                     917 	pop	de
      0003CC D5                     918 	push	de
      0003CD 1A                     919 	ld	a, (de)
      0003CE 32                     920 	ld	(hl-), a
      0003CF 5E                     921 	ld	e, (hl)
      0003D0 3E 07                  922 	ld	a,#0x07
      0003D2 57                     923 	ld	d,a
      0003D3 96                     924 	sub	a, (hl)
      0003D4 CB 7B                  925 	bit	7, e
      0003D6 28 07                  926 	jr	Z, 00124$
      0003D8 CB 7A                  927 	bit	7, d
      0003DA 20 08                  928 	jr	NZ, 00125$
      0003DC BF                     929 	cp	a, a
      0003DD 18 05                  930 	jr	00125$
      0003DF                        931 00124$:
      0003DF CB 7A                  932 	bit	7, d
      0003E1 28 01                  933 	jr	Z, 00125$
      0003E3 37                     934 	scf
      0003E4                        935 00125$:
      0003E4 38 09                  936 	jr	C, 00101$
      0003E6 F8 03                  937 	ldhl	sp,	#3
      0003E8 7E                     938 	ld	a, (hl)
      0003E9 EE 80                  939 	xor	a, #0x80
      0003EB D6 79                  940 	sub	a, #0x79
      0003ED 30 1E                  941 	jr	NC, 00102$
      0003EF                        942 00101$:
                                    943 ;D:\Business\LaroldsJubilantJunkyard\game-remakes\space-invaders\source\main\default\States\Gameplay\invaders.c:118: invaders[i].slide=0;
      0003EF E1                     944 	pop	hl
      0003F0 E5                     945 	push	hl
      0003F1 36 00                  946 	ld	(hl), #0x00
                                    947 ;D:\Business\LaroldsJubilantJunkyard\game-remakes\space-invaders\source\main\default\States\Gameplay\invaders.c:119: invaders[i].column+=slideDir;
      0003F3 0A                     948 	ld	a, (bc)
      0003F4 21r00r00               949 	ld	hl, #_slideDir
      0003F7 86                     950 	add	a, (hl)
      0003F8 02                     951 	ld	(bc), a
                                    952 ;D:\Business\LaroldsJubilantJunkyard\game-remakes\space-invaders\source\main\default\States\Gameplay\invaders.c:122: return(invaders[i].column==0)||(invaders[i].column==19);
      0003F9 F5                     953 	push	af
      0003FA 0A                     954 	ld	a, (bc)
      0003FB 4F                     955 	ld	c, a
      0003FC F1                     956 	pop	af
      0003FD B7                     957 	or	a, a
      0003FE 28 09                  958 	jr	Z, 00107$
      000400 79                     959 	ld	a, c
      000401 D6 13                  960 	sub	a, #0x13
      000403 28 04                  961 	jr	Z, 00107$
      000405 1E 00                  962 	ld	e, #0x00
      000407 18 06                  963 	jr	00104$
      000409                        964 00107$:
      000409 1E 01                  965 	ld	e, #0x01
      00040B 18 02                  966 	jr	00104$
      00040D                        967 00102$:
                                    968 ;D:\Business\LaroldsJubilantJunkyard\game-remakes\space-invaders\source\main\default\States\Gameplay\invaders.c:125: return 0;
      00040D 1E 00                  969 	ld	e, #0x00
      00040F                        970 00104$:
                                    971 ;D:\Business\LaroldsJubilantJunkyard\game-remakes\space-invaders\source\main\default\States\Gameplay\invaders.c:126: }
      00040F E8 04                  972 	add	sp, #4
      000411 C9                     973 	ret
                                    974 ;D:\Business\LaroldsJubilantJunkyard\game-remakes\space-invaders\source\main\default\States\Gameplay\invaders.c:128: UINT8 InvaderTryFireBullet(UINT8 i){
                                    975 ;	---------------------------------
                                    976 ; Function InvaderTryFireBullet
                                    977 ; ---------------------------------
      000412                        978 _InvaderTryFireBullet::
      000412 3B                     979 	dec	sp
      000413 3B                     980 	dec	sp
                                    981 ;D:\Business\LaroldsJubilantJunkyard\game-remakes\space-invaders\source\main\default\States\Gameplay\invaders.c:133: UINT8 availableBulletSprite=GetAvailableBulletSprite();
      000414 CDr00r00               982 	call	_GetAvailableBulletSprite
      000417 7B                     983 	ld	a,e
                                    984 ;D:\Business\LaroldsJubilantJunkyard\game-remakes\space-invaders\source\main\default\States\Gameplay\invaders.c:136: if(availableBulletSprite!=0){
      000418 B7                     985 	or	a, a
      000419 28 4E                  986 	jr	Z, 00105$
                                    987 ;C:/gbdk/include/gb/gb.h:1326: shadow_OAM[nb].tile=tile;
      00041B 6B                     988 	ld	l, e
                                    989 ;	spillPairReg hl
                                    990 ;	spillPairReg hl
      00041C 26 00                  991 	ld	h, #0x00
                                    992 ;	spillPairReg hl
                                    993 ;	spillPairReg hl
      00041E 29                     994 	add	hl, hl
      00041F 29                     995 	add	hl, hl
      000420 4D                     996 	ld	c, l
      000421 44                     997 	ld	b, h
      000422 21r01r00               998 	ld	hl,#_shadow_OAM + 1
      000425 09                     999 	add	hl,bc
      000426 23                    1000 	inc	hl
      000427 36 03                 1001 	ld	(hl), #0x03
                                   1002 ;D:\Business\LaroldsJubilantJunkyard\game-remakes\space-invaders\source\main\default\States\Gameplay\invaders.c:142: move_sprite(availableBulletSprite,invaders[i].column*8+12+invaders[i].slide*2,invaders[i].row*8+24);
      000429 F8 04                 1003 	ldhl	sp,	#4
      00042B 5E                    1004 	ld	e, (hl)
      00042C 16 00                 1005 	ld	d, #0x00
      00042E 6B                    1006 	ld	l, e
      00042F 62                    1007 	ld	h, d
      000430 29                    1008 	add	hl, hl
      000431 29                    1009 	add	hl, hl
      000432 19                    1010 	add	hl, de
      000433 33                    1011 	inc	sp
      000434 33                    1012 	inc	sp
      000435 E5                    1013 	push	hl
      000436 11r00r00              1014 	ld	de, #_invaders
      000439 E1                    1015 	pop	hl
      00043A E5                    1016 	push	hl
      00043B 19                    1017 	add	hl, de
                                   1018 ;	spillPairReg hl
                                   1019 ;	spillPairReg hl
      00043C 5D                    1020 	ld	e,l
      00043D 54                    1021 	ld	d,h
                                   1022 ;	spillPairReg hl
                                   1023 ;	spillPairReg hl
      00043E 23                    1024 	inc	hl
      00043F 7E                    1025 	ld	a, (hl)
      000440 87                    1026 	add	a, a
      000441 87                    1027 	add	a, a
      000442 87                    1028 	add	a, a
      000443 C6 18                 1029 	add	a, #0x18
      000445 F8 01                 1030 	ldhl	sp,	#1
      000447 77                    1031 	ld	(hl), a
      000448 1A                    1032 	ld	a, (de)
      000449 87                    1033 	add	a, a
      00044A 87                    1034 	add	a, a
      00044B 87                    1035 	add	a, a
      00044C C6 0C                 1036 	add	a, #0x0c
      00044E 6F                    1037 	ld	l, a
                                   1038 ;	spillPairReg hl
                                   1039 ;	spillPairReg hl
      00044F 13                    1040 	inc	de
      000450 13                    1041 	inc	de
      000451 13                    1042 	inc	de
      000452 13                    1043 	inc	de
      000453 1A                    1044 	ld	a, (de)
      000454 87                    1045 	add	a, a
      000455 85                    1046 	add	a, l
      000456 5F                    1047 	ld	e, a
                                   1048 ;C:/gbdk/include/gb/gb.h:1399: OAM_item_t * itm = &shadow_OAM[nb];
      000457 21r00r00              1049 	ld	hl, #_shadow_OAM
      00045A 09                    1050 	add	hl, bc
      00045B 4D                    1051 	ld	c, l
      00045C 44                    1052 	ld	b, h
                                   1053 ;C:/gbdk/include/gb/gb.h:1400: itm->y=y, itm->x=x;
      00045D F8 01                 1054 	ldhl	sp,	#1
      00045F 7E                    1055 	ld	a, (hl)
      000460 02                    1056 	ld	(bc), a
      000461 03                    1057 	inc	bc
      000462 7B                    1058 	ld	a, e
      000463 02                    1059 	ld	(bc), a
                                   1060 ;D:\Business\LaroldsJubilantJunkyard\game-remakes\space-invaders\source\main\default\States\Gameplay\invaders.c:145: shotTimer=SHOT_TIMER_MAX;
      000464 21rCCr00              1061 	ld	hl, #_shotTimer
      000467 36 32                 1062 	ld	(hl), #0x32
      000469                       1063 00105$:
                                   1064 ;D:\Business\LaroldsJubilantJunkyard\game-remakes\space-invaders\source\main\default\States\Gameplay\invaders.c:147: }
      000469 33                    1065 	inc	sp
      00046A 33                    1066 	inc	sp
      00046B C9                    1067 	ret
                                   1068 ;D:\Business\LaroldsJubilantJunkyard\game-remakes\space-invaders\source\main\default\States\Gameplay\invaders.c:149: void ShiftAllInvadersDown(){
                                   1069 ;	---------------------------------
                                   1070 ; Function ShiftAllInvadersDown
                                   1071 ; ---------------------------------
      00046C                       1072 _ShiftAllInvadersDown::
                                   1073 ;D:\Business\LaroldsJubilantJunkyard\game-remakes\space-invaders\source\main\default\States\Gameplay\invaders.c:152: for(UINT8 i=0;i<40;i++){invaders[i].row++;}
      00046C 0E 00                 1074 	ld	c, #0x00
      00046E                       1075 00103$:
      00046E 79                    1076 	ld	a, c
      00046F D6 28                 1077 	sub	a, #0x28
      000471 30 10                 1078 	jr	NC, 00101$
      000473 06 00                 1079 	ld	b, #0x00
      000475 69                    1080 	ld	l, c
      000476 60                    1081 	ld	h, b
      000477 29                    1082 	add	hl, hl
      000478 29                    1083 	add	hl, hl
      000479 09                    1084 	add	hl, bc
      00047A 11r00r00              1085 	ld	de, #_invaders
      00047D 19                    1086 	add	hl, de
      00047E 23                    1087 	inc	hl
      00047F 34                    1088 	inc	(hl)
      000480 0C                    1089 	inc	c
      000481 18 EB                 1090 	jr	00103$
      000483                       1091 00101$:
                                   1092 ;D:\Business\LaroldsJubilantJunkyard\game-remakes\space-invaders\source\main\default\States\Gameplay\invaders.c:155: slideDir=-slideDir;
      000483 AF                    1093 	xor	a, a
      000484 21r00r00              1094 	ld	hl, #_slideDir
      000487 96                    1095 	sub	a, (hl)
      000488 77                    1096 	ld	(hl), a
                                   1097 ;D:\Business\LaroldsJubilantJunkyard\game-remakes\space-invaders\source\main\default\States\Gameplay\invaders.c:157: fill_bkg_rect(0,topRow,20,1,0);
      000489 AF                    1098 	xor	a, a
      00048A 67                    1099 	ld	h, a
      00048B 2E 01                 1100 	ld	l, #0x01
      00048D E5                    1101 	push	hl
      00048E 3E 14                 1102 	ld	a, #0x14
      000490 F5                    1103 	push	af
      000491 33                    1104 	inc	sp
      000492 FArCAr00              1105 	ld	a, (#_topRow)
      000495 67                    1106 	ld	h, a
      000496 2E 00                 1107 	ld	l, #0x00
      000498 E5                    1108 	push	hl
      000499 CDr00r00              1109 	call	_fill_bkg_rect
      00049C E8 05                 1110 	add	sp, #5
                                   1111 ;D:\Business\LaroldsJubilantJunkyard\game-remakes\space-invaders\source\main\default\States\Gameplay\invaders.c:160: topRow++;
      00049E 21rCAr00              1112 	ld	hl, #_topRow
      0004A1 34                    1113 	inc	(hl)
                                   1114 ;D:\Business\LaroldsJubilantJunkyard\game-remakes\space-invaders\source\main\default\States\Gameplay\invaders.c:161: }
      0004A2 C9                    1115 	ret
                                   1116 ;D:\Business\LaroldsJubilantJunkyard\game-remakes\space-invaders\source\main\default\States\Gameplay\invaders.c:163: UINT8 InvadersShouldMove(){
                                   1117 ;	---------------------------------
                                   1118 ; Function InvadersShouldMove
                                   1119 ; ---------------------------------
      0004A3                       1120 _InvadersShouldMove::
                                   1121 ;D:\Business\LaroldsJubilantJunkyard\game-remakes\space-invaders\source\main\default\States\Gameplay\invaders.c:164: return invaderCounter>4-topRow/2||topRow>9;
      0004A3 21rCAr00              1122 	ld	hl, #_topRow
      0004A6 4E                    1123 	ld	c, (hl)
      0004A7 06 00                 1124 	ld	b, #0x00
      0004A9 69                    1125 	ld	l, c
                                   1126 ;	spillPairReg hl
                                   1127 ;	spillPairReg hl
      0004AA 60                    1128 	ld	h, b
                                   1129 ;	spillPairReg hl
                                   1130 ;	spillPairReg hl
      0004AB CB 78                 1131 	bit	7, b
      0004AD 28 03                 1132 	jr	Z, 00106$
      0004AF 69                    1133 	ld	l, c
                                   1134 ;	spillPairReg hl
                                   1135 ;	spillPairReg hl
      0004B0 60                    1136 	ld	h, b
                                   1137 ;	spillPairReg hl
                                   1138 ;	spillPairReg hl
      0004B1 23                    1139 	inc	hl
      0004B2                       1140 00106$:
      0004B2 CB 2C                 1141 	sra	h
      0004B4 CB 1D                 1142 	rr	l
      0004B6 3E 04                 1143 	ld	a, #0x04
      0004B8 95                    1144 	sub	a, l
      0004B9 4F                    1145 	ld	c, a
      0004BA 9F                    1146 	sbc	a, a
      0004BB 94                    1147 	sub	a, h
      0004BC 47                    1148 	ld	b, a
      0004BD 21rC9r00              1149 	ld	hl, #_invaderCounter
      0004C0 6E                    1150 	ld	l, (hl)
                                   1151 ;	spillPairReg hl
                                   1152 ;	spillPairReg hl
      0004C1 26 00                 1153 	ld	h, #0x00
                                   1154 ;	spillPairReg hl
                                   1155 ;	spillPairReg hl
      0004C3 5C                    1156 	ld	e, h
      0004C4 50                    1157 	ld	d, b
      0004C5 79                    1158 	ld	a, c
      0004C6 95                    1159 	sub	a, l
      0004C7 78                    1160 	ld	a, b
      0004C8 9C                    1161 	sbc	a, h
      0004C9 CB 7B                 1162 	bit	7, e
      0004CB 28 07                 1163 	jr	Z, 00122$
      0004CD CB 7A                 1164 	bit	7, d
      0004CF 20 08                 1165 	jr	NZ, 00123$
      0004D1 BF                    1166 	cp	a, a
      0004D2 18 05                 1167 	jr	00123$
      0004D4                       1168 00122$:
      0004D4 CB 7A                 1169 	bit	7, d
      0004D6 28 01                 1170 	jr	Z, 00123$
      0004D8 37                    1171 	scf
      0004D9                       1172 00123$:
      0004D9 38 0B                 1173 	jr	C, 00104$
      0004DB 3E 09                 1174 	ld	a, #0x09
      0004DD 21rCAr00              1175 	ld	hl, #_topRow
      0004E0 96                    1176 	sub	a, (hl)
      0004E1 38 03                 1177 	jr	C, 00104$
      0004E3 1E 00                 1178 	ld	e, #0x00
      0004E5 C9                    1179 	ret
      0004E6                       1180 00104$:
      0004E6 1E 01                 1181 	ld	e, #0x01
                                   1182 ;D:\Business\LaroldsJubilantJunkyard\game-remakes\space-invaders\source\main\default\States\Gameplay\invaders.c:165: }
      0004E8 C9                    1183 	ret
                                   1184 ;D:\Business\LaroldsJubilantJunkyard\game-remakes\space-invaders\source\main\default\States\Gameplay\invaders.c:167: void UpdateInvaders(){
                                   1185 ;	---------------------------------
                                   1186 ; Function UpdateInvaders
                                   1187 ; ---------------------------------
      0004E9                       1188 _UpdateInvaders::
                                   1189 ;D:\Business\LaroldsJubilantJunkyard\game-remakes\space-invaders\source\main\default\States\Gameplay\invaders.c:169: UINT8 anyInvaderHasReachedEndOfScreen=0;
      0004E9 0E 00                 1190 	ld	c, #0x00
                                   1191 ;D:\Business\LaroldsJubilantJunkyard\game-remakes\space-invaders\source\main\default\States\Gameplay\invaders.c:171: invadersRemaining=0;
      0004EB 21rCBr00              1192 	ld	hl, #_invadersRemaining
      0004EE 36 00                 1193 	ld	(hl), #0x00
                                   1194 ;D:\Business\LaroldsJubilantJunkyard\game-remakes\space-invaders\source\main\default\States\Gameplay\invaders.c:172: invaderCounter++;
      0004F0 21rC9r00              1195 	ld	hl, #_invaderCounter
      0004F3 34                    1196 	inc	(hl)
                                   1197 ;D:\Business\LaroldsJubilantJunkyard\game-remakes\space-invaders\source\main\default\States\Gameplay\invaders.c:173: if(shotTimer!=0)shotTimer--;
      0004F4 21rCCr00              1198 	ld	hl, #_shotTimer
      0004F7 7E                    1199 	ld	a, (hl)
      0004F8 B7                    1200 	or	a, a
      0004F9 28 01                 1201 	jr	Z, 00131$
      0004FB 35                    1202 	dec	(hl)
                                   1203 ;D:\Business\LaroldsJubilantJunkyard\game-remakes\space-invaders\source\main\default\States\Gameplay\invaders.c:175: for(UINT8 i=0;i<40;i++){
      0004FC                       1204 00131$:
      0004FC 06 00                 1205 	ld	b, #0x00
      0004FE                       1206 00116$:
      0004FE 78                    1207 	ld	a, b
      0004FF D6 28                 1208 	sub	a, #0x28
      000501 30 6C                 1209 	jr	NC, 00110$
                                   1210 ;D:\Business\LaroldsJubilantJunkyard\game-remakes\space-invaders\source\main\default\States\Gameplay\invaders.c:178: if(invaders[i].active==1){
      000503 58                    1211 	ld	e, b
      000504 16 00                 1212 	ld	d, #0x00
      000506 6B                    1213 	ld	l, e
      000507 62                    1214 	ld	h, d
      000508 29                    1215 	add	hl, hl
      000509 29                    1216 	add	hl, hl
      00050A 19                    1217 	add	hl, de
      00050B 11r00r00              1218 	ld	de, #_invaders
      00050E 19                    1219 	add	hl, de
      00050F 23                    1220 	inc	hl
      000510 23                    1221 	inc	hl
      000511 7E                    1222 	ld	a, (hl)
      000512 3D                    1223 	dec	a
      000513 20 31                 1224 	jr	NZ, 00107$
                                   1225 ;D:\Business\LaroldsJubilantJunkyard\game-remakes\space-invaders\source\main\default\States\Gameplay\invaders.c:181: invadersRemaining++;
      000515 21rCBr00              1226 	ld	hl, #_invadersRemaining
      000518 34                    1227 	inc	(hl)
                                   1228 ;D:\Business\LaroldsJubilantJunkyard\game-remakes\space-invaders\source\main\default\States\Gameplay\invaders.c:183: if(shotTimer==0&&RandomNumber(0,100)<10){
      000519 FArCCr00              1229 	ld	a, (#_shotTimer)
      00051C B7                    1230 	or	a, a
      00051D 20 17                 1231 	jr	NZ, 00104$
      00051F C5                    1232 	push	bc
      000520 21 00 64              1233 	ld	hl, #0x6400
      000523 E5                    1234 	push	hl
      000524 CDr00r00              1235 	call	_RandomNumber
      000527 E1                    1236 	pop	hl
      000528 7B                    1237 	ld	a, e
      000529 C1                    1238 	pop	bc
      00052A D6 0A                 1239 	sub	a, #0x0a
      00052C 30 08                 1240 	jr	NC, 00104$
                                   1241 ;D:\Business\LaroldsJubilantJunkyard\game-remakes\space-invaders\source\main\default\States\Gameplay\invaders.c:184: InvaderTryFireBullet(i);
      00052E C5                    1242 	push	bc
      00052F C5                    1243 	push	bc
      000530 33                    1244 	inc	sp
      000531 CDr12r04              1245 	call	_InvaderTryFireBullet
      000534 33                    1246 	inc	sp
      000535 C1                    1247 	pop	bc
      000536                       1248 00104$:
                                   1249 ;D:\Business\LaroldsJubilantJunkyard\game-remakes\space-invaders\source\main\default\States\Gameplay\invaders.c:187: InvaderCheckPlayerCollision(i);
      000536 C5                    1250 	push	bc
      000537 C5                    1251 	push	bc
      000538 33                    1252 	inc	sp
      000539 CDr39r01              1253 	call	_InvaderCheckPlayerCollision
      00053C 33                    1254 	inc	sp
      00053D C1                    1255 	pop	bc
                                   1256 ;D:\Business\LaroldsJubilantJunkyard\game-remakes\space-invaders\source\main\default\States\Gameplay\invaders.c:188: InvaderCheckBulletCollision(i);
      00053E C5                    1257 	push	bc
      00053F C5                    1258 	push	bc
      000540 33                    1259 	inc	sp
      000541 CDrABr01              1260 	call	_InvaderCheckBulletCollision
      000544 33                    1261 	inc	sp
      000545 C1                    1262 	pop	bc
      000546                       1263 00107$:
                                   1264 ;D:\Business\LaroldsJubilantJunkyard\game-remakes\space-invaders\source\main\default\States\Gameplay\invaders.c:193: if(InvadersShouldMove()){
      000546 C5                    1265 	push	bc
      000547 CDrA3r04              1266 	call	_InvadersShouldMove
      00054A 7B                    1267 	ld	a, e
      00054B C1                    1268 	pop	bc
      00054C B7                    1269 	or	a, a
      00054D 28 15                 1270 	jr	Z, 00109$
                                   1271 ;D:\Business\LaroldsJubilantJunkyard\game-remakes\space-invaders\source\main\default\States\Gameplay\invaders.c:196: anyInvaderHasReachedEndOfScreen=anyInvaderHasReachedEndOfScreen||SlideInvader(i);
      00054F 79                    1272 	ld	a, c
      000550 B7                    1273 	or	a, a
      000551 20 0F                 1274 	jr	NZ, 00121$
      000553 C5                    1275 	push	bc
      000554 C5                    1276 	push	bc
      000555 33                    1277 	inc	sp
      000556 CDrA3r03              1278 	call	_SlideInvader
      000559 33                    1279 	inc	sp
      00055A 7B                    1280 	ld	a, e
      00055B C1                    1281 	pop	bc
      00055C B7                    1282 	or	a,a
      00055D 20 03                 1283 	jr	NZ, 00121$
      00055F 4F                    1284 	ld	c,a
      000560 18 02                 1285 	jr	00122$
      000562                       1286 00121$:
      000562 0E 01                 1287 	ld	c, #0x01
      000564                       1288 00122$:
      000564                       1289 00109$:
                                   1290 ;D:\Business\LaroldsJubilantJunkyard\game-remakes\space-invaders\source\main\default\States\Gameplay\invaders.c:201: UpdateInvaderTiles(i);
      000564 C5                    1291 	push	bc
      000565 C5                    1292 	push	bc
      000566 33                    1293 	inc	sp
      000567 CDr27r02              1294 	call	_UpdateInvaderTiles
      00056A 33                    1295 	inc	sp
      00056B C1                    1296 	pop	bc
                                   1297 ;D:\Business\LaroldsJubilantJunkyard\game-remakes\space-invaders\source\main\default\States\Gameplay\invaders.c:175: for(UINT8 i=0;i<40;i++){
      00056C 04                    1298 	inc	b
      00056D 18 8F                 1299 	jr	00116$
      00056F                       1300 00110$:
                                   1301 ;D:\Business\LaroldsJubilantJunkyard\game-remakes\space-invaders\source\main\default\States\Gameplay\invaders.c:205: if(InvadersShouldMove()){
      00056F C5                    1302 	push	bc
      000570 CDrA3r04              1303 	call	_InvadersShouldMove
      000573 7B                    1304 	ld	a, e
      000574 C1                    1305 	pop	bc
      000575 B7                    1306 	or	a, a
      000576 28 05                 1307 	jr	Z, 00112$
                                   1308 ;D:\Business\LaroldsJubilantJunkyard\game-remakes\space-invaders\source\main\default\States\Gameplay\invaders.c:206: invaderCounter=0;
      000578 21rC9r00              1309 	ld	hl, #_invaderCounter
      00057B 36 00                 1310 	ld	(hl), #0x00
      00057D                       1311 00112$:
                                   1312 ;D:\Business\LaroldsJubilantJunkyard\game-remakes\space-invaders\source\main\default\States\Gameplay\invaders.c:213: if(anyInvaderHasReachedEndOfScreen){
      00057D 79                    1313 	ld	a, c
      00057E B7                    1314 	or	a, a
                                   1315 ;D:\Business\LaroldsJubilantJunkyard\game-remakes\space-invaders\source\main\default\States\Gameplay\invaders.c:214: ShiftAllInvadersDown();
      00057F C2r6Cr04              1316 	jp	NZ,_ShiftAllInvadersDown
                                   1317 ;D:\Business\LaroldsJubilantJunkyard\game-remakes\space-invaders\source\main\default\States\Gameplay\invaders.c:216: }
      000582 C9                    1318 	ret
                                   1319 	.area _CODE
                                   1320 	.area _INITIALIZER
                                   1321 	.area _CABS (ABS)
