                                      1 ;--------------------------------------------------------
                                      2 ; File Created by SDCC : free open source ANSI-C Compiler
                                      3 ; Version 4.1.6 #12539 (MINGW32)
                                      4 ;--------------------------------------------------------
                                      5 	.module invaders
                                      6 	.optsdcc -mgbz80
                                      7 	
                                      8 ;--------------------------------------------------------
                                      9 ; Public variables in this module
                                     10 ;--------------------------------------------------------
                                     11 	.globl _InvadersShouldMove
                                     12 	.globl _ShiftAllInvadersDown
                                     13 	.globl _InvaderTryFireBullet
                                     14 	.globl _SlideInvader
                                     15 	.globl _InvaderCheckPlayerCollision
                                     16 	.globl _RandomNumber
                                     17 	.globl _GetAvailableBulletSprite
                                     18 	.globl _fill_bkg_rect
                                     19 	.globl _set_bkg_tile_xy
                                     20 	.globl _rowsAtEnd
                                     21 	.globl _moveRow
                                     22 	.globl _shotTimer
                                     23 	.globl _topRow
                                     24 	.globl _invaderCounter
                                     25 	.globl _invaderSpeed
                                     26 	.globl _invaders
                                     27 	.globl _tiles
                                     28 	.globl _SetupInvaders
                                     29 	.globl _UpdateInvaderTiles
                                     30 	.globl _UpdateInvaders
                                     31 ;--------------------------------------------------------
                                     32 ; special function registers
                                     33 ;--------------------------------------------------------
                                     34 ;--------------------------------------------------------
                                     35 ; ram data
                                     36 ;--------------------------------------------------------
                                     37 	.area _DATA
      000000                         38 _invaders::
      000000                         39 	.ds 200
      0000C8                         40 _invaderSpeed::
      0000C8                         41 	.ds 1
      0000C9                         42 _invaderCounter::
      0000C9                         43 	.ds 1
      0000CA                         44 _topRow::
      0000CA                         45 	.ds 1
      0000CB                         46 _shotTimer::
      0000CB                         47 	.ds 1
                                     48 ;--------------------------------------------------------
                                     49 ; ram data
                                     50 ;--------------------------------------------------------
                                     51 	.area _INITIALIZED
      000000                         52 _moveRow::
      000000                         53 	.ds 1
      000001                         54 _rowsAtEnd::
      000001                         55 	.ds 1
                                     56 ;--------------------------------------------------------
                                     57 ; absolute external ram data
                                     58 ;--------------------------------------------------------
                                     59 	.area _DABS (ABS)
                                     60 ;--------------------------------------------------------
                                     61 ; global & static initialisations
                                     62 ;--------------------------------------------------------
                                     63 	.area _HOME
                                     64 	.area _GSINIT
                                     65 	.area _GSFINAL
                                     66 	.area _GSINIT
                                     67 ;--------------------------------------------------------
                                     68 ; Home
                                     69 ;--------------------------------------------------------
                                     70 	.area _HOME
                                     71 	.area _HOME
                                     72 ;--------------------------------------------------------
                                     73 ; code
                                     74 ;--------------------------------------------------------
                                     75 	.area _CODE
                                     76 ;D:\Business\LaroldsJubilantJunkyard\game-remakes\space-invaders\source\main\default\States\Gameplay\invaders.c:16: void SetupInvaders(){
                                     77 ;	---------------------------------
                                     78 ; Function SetupInvaders
                                     79 ; ---------------------------------
      000000                         80 _SetupInvaders::
      000000 E8 F1                   81 	add	sp, #-15
                                     82 ;D:\Business\LaroldsJubilantJunkyard\game-remakes\space-invaders\source\main\default\States\Gameplay\invaders.c:18: uint8_t alienTypes[3]={INVADER1_TILES_START,INVADER2_TILES_START,INVADER3_TILES_START};
      000002 F8 00                   83 	ldhl	sp,	#0
      000004 4D                      84 	ld	c, l
      000005 44                      85 	ld	b, h
      000006 36 05                   86 	ld	(hl), #0x05
      000008 69                      87 	ld	l, c
                                     88 ;	spillPairReg hl
                                     89 ;	spillPairReg hl
      000009 60                      90 	ld	h, b
                                     91 ;	spillPairReg hl
                                     92 ;	spillPairReg hl
      00000A 23                      93 	inc	hl
      00000B 36 15                   94 	ld	(hl), #0x15
      00000D 69                      95 	ld	l, c
                                     96 ;	spillPairReg hl
                                     97 ;	spillPairReg hl
      00000E 60                      98 	ld	h, b
                                     99 ;	spillPairReg hl
                                    100 ;	spillPairReg hl
      00000F 23                     101 	inc	hl
      000010 23                     102 	inc	hl
      000011 36 25                  103 	ld	(hl), #0x25
                                    104 ;D:\Business\LaroldsJubilantJunkyard\game-remakes\space-invaders\source\main\default\States\Gameplay\invaders.c:20: for(uint8_t i=0;i<40;i++){
      000013 F8 03                  105 	ldhl	sp,	#3
      000015 79                     106 	ld	a, c
      000016 22                     107 	ld	(hl+), a
      000017 70                     108 	ld	(hl), b
      000018 F8 0E                  109 	ldhl	sp,	#14
      00001A 36 00                  110 	ld	(hl), #0x00
      00001C                        111 00103$:
      00001C F8 0E                  112 	ldhl	sp,	#14
      00001E 7E                     113 	ld	a, (hl)
      00001F D6 28                  114 	sub	a, #0x28
      000021 D2r0Fr01               115 	jp	NC, 00101$
                                    116 ;D:\Business\LaroldsJubilantJunkyard\game-remakes\space-invaders\source\main\default\States\Gameplay\invaders.c:21: invaders[i].column=(i%8)*2+2;
      000024 4E                     117 	ld	c, (hl)
      000025 06 00                  118 	ld	b, #0x00
      000027 69                     119 	ld	l, c
      000028 60                     120 	ld	h, b
      000029 29                     121 	add	hl, hl
      00002A 29                     122 	add	hl, hl
      00002B 09                     123 	add	hl, bc
      00002C 01r00r00               124 	ld	bc,#_invaders
      00002F 09                     125 	add	hl,bc
      000030 E5                     126 	push	hl
      000031 7D                     127 	ld	a, l
      000032 F8 07                  128 	ldhl	sp,	#7
      000034 77                     129 	ld	(hl), a
      000035 E1                     130 	pop	hl
      000036 7C                     131 	ld	a, h
      000037 F8 06                  132 	ldhl	sp,	#6
      000039 77                     133 	ld	(hl), a
      00003A F8 0E                  134 	ldhl	sp,	#14
      00003C 7E                     135 	ld	a, (hl)
      00003D F8 07                  136 	ldhl	sp,	#7
      00003F 22                     137 	ld	(hl+), a
      000040 AF                     138 	xor	a, a
      000041 32                     139 	ld	(hl-), a
      000042 3A                     140 	ld	a, (hl-)
      000043 E6 07                  141 	and	a, #0x07
      000045 87                     142 	add	a, a
      000046 C6 02                  143 	add	a, #0x02
      000048 4F                     144 	ld	c, a
      000049 3A                     145 	ld	a, (hl-)
      00004A 6E                     146 	ld	l, (hl)
      00004B 67                     147 	ld	h, a
      00004C 71                     148 	ld	(hl), c
                                    149 ;D:\Business\LaroldsJubilantJunkyard\game-remakes\space-invaders\source\main\default\States\Gameplay\invaders.c:22: invaders[i].row=(i/8)+2;
      00004D F8 05                  150 	ldhl	sp,#5
      00004F 2A                     151 	ld	a, (hl+)
      000050 5F                     152 	ld	e, a
      000051 56                     153 	ld	d, (hl)
      000052 6B                     154 	ld	l, e
      000053 62                     155 	ld	h, d
      000054 23                     156 	inc	hl
      000055 E5                     157 	push	hl
      000056 7D                     158 	ld	a, l
      000057 F8 0B                  159 	ldhl	sp,	#11
      000059 77                     160 	ld	(hl), a
      00005A E1                     161 	pop	hl
      00005B 7C                     162 	ld	a, h
      00005C F8 0A                  163 	ldhl	sp,	#10
      00005E 77                     164 	ld	(hl), a
      00005F F8 07                  165 	ldhl	sp,	#7
      000061 2A                     166 	ld	a, (hl+)
      000062 4F                     167 	ld	c, a
      000063 7E                     168 	ld	a,(hl)
      000064 47                     169 	ld	b,a
      000065 07                     170 	rlca
      000066 E6 01                  171 	and	a,#0x01
      000068 F8 0B                  172 	ldhl	sp,	#11
      00006A 77                     173 	ld	(hl), a
      00006B B7                     174 	or	a, a
      00006C 28 0B                  175 	jr	Z, 00107$
      00006E F8 07                  176 	ldhl	sp,#7
      000070 2A                     177 	ld	a, (hl+)
      000071 5F                     178 	ld	e, a
      000072 56                     179 	ld	d, (hl)
      000073 21 07 00               180 	ld	hl, #0x0007
      000076 19                     181 	add	hl, de
      000077 4D                     182 	ld	c, l
      000078 44                     183 	ld	b, h
      000079                        184 00107$:
      000079 CB 28                  185 	sra	b
      00007B CB 19                  186 	rr	c
      00007D CB 28                  187 	sra	b
      00007F CB 19                  188 	rr	c
      000081 CB 28                  189 	sra	b
      000083 CB 19                  190 	rr	c
      000085 0C                     191 	inc	c
      000086 0C                     192 	inc	c
      000087 F8 09                  193 	ldhl	sp,	#9
      000089 2A                     194 	ld	a,	(hl+)
      00008A 66                     195 	ld	h, (hl)
      00008B 6F                     196 	ld	l, a
      00008C 71                     197 	ld	(hl), c
                                    198 ;D:\Business\LaroldsJubilantJunkyard\game-remakes\space-invaders\source\main\default\States\Gameplay\invaders.c:23: invaders[i].slide=0;
      00008D F8 05                  199 	ldhl	sp,#5
      00008F 2A                     200 	ld	a, (hl+)
      000090 5F                     201 	ld	e, a
      000091 56                     202 	ld	d, (hl)
      000092 21 04 00               203 	ld	hl, #0x0004
      000095 19                     204 	add	hl, de
      000096 4D                     205 	ld	c, l
      000097 44                     206 	ld	b, h
      000098 AF                     207 	xor	a, a
      000099 02                     208 	ld	(bc), a
                                    209 ;D:\Business\LaroldsJubilantJunkyard\game-remakes\space-invaders\source\main\default\States\Gameplay\invaders.c:24: invaders[i].active=1;
      00009A F8 05                  210 	ldhl	sp,	#5
      00009C 2A                     211 	ld	a, (hl+)
      00009D 4F                     212 	ld	c, a
                                    213 ;D:\Business\LaroldsJubilantJunkyard\game-remakes\space-invaders\source\main\default\States\Gameplay\invaders.c:25: invaders[i].originalTile=alienTypes[i/16];
      00009E 3A                     214 	ld	a, (hl-)
      00009F 47                     215 	ld	b, a
      0000A0 03                     216 	inc	bc
      0000A1 03                     217 	inc	bc
      0000A2 3E 01                  218 	ld	a, #0x01
      0000A4 02                     219 	ld	(bc), a
      0000A5 2A                     220 	ld	a, (hl+)
      0000A6 5F                     221 	ld	e, a
      0000A7 56                     222 	ld	d, (hl)
      0000A8 21 03 00               223 	ld	hl, #0x0003
      0000AB 19                     224 	add	hl, de
      0000AC E5                     225 	push	hl
      0000AD 7D                     226 	ld	a, l
      0000AE F8 0E                  227 	ldhl	sp,	#14
      0000B0 77                     228 	ld	(hl), a
      0000B1 E1                     229 	pop	hl
      0000B2 7C                     230 	ld	a, h
      0000B3 F8 0D                  231 	ldhl	sp,	#13
      0000B5 77                     232 	ld	(hl), a
      0000B6 F8 07                  233 	ldhl	sp,	#7
      0000B8 2A                     234 	ld	a, (hl+)
      0000B9 4F                     235 	ld	c, a
      0000BA 46                     236 	ld	b, (hl)
      0000BB F8 0B                  237 	ldhl	sp,	#11
      0000BD 7E                     238 	ld	a, (hl)
      0000BE B7                     239 	or	a, a
      0000BF 28 0B                  240 	jr	Z, 00108$
      0000C1 F8 07                  241 	ldhl	sp,#7
      0000C3 2A                     242 	ld	a, (hl+)
      0000C4 5F                     243 	ld	e, a
      0000C5 56                     244 	ld	d, (hl)
      0000C6 21 0F 00               245 	ld	hl, #0x000f
      0000C9 19                     246 	add	hl, de
      0000CA 4D                     247 	ld	c, l
      0000CB 44                     248 	ld	b, h
      0000CC                        249 00108$:
      0000CC CB 28                  250 	sra	b
      0000CE CB 19                  251 	rr	c
      0000D0 CB 28                  252 	sra	b
      0000D2 CB 19                  253 	rr	c
      0000D4 CB 28                  254 	sra	b
      0000D6 CB 19                  255 	rr	c
      0000D8 CB 28                  256 	sra	b
      0000DA CB 19                  257 	rr	c
      0000DC F8 03                  258 	ldhl	sp,	#3
      0000DE 2A                     259 	ld	a,	(hl+)
      0000DF 66                     260 	ld	h, (hl)
      0000E0 6F                     261 	ld	l, a
      0000E1 09                     262 	add	hl, bc
      0000E2 4D                     263 	ld	c, l
      0000E3 44                     264 	ld	b, h
      0000E4 0A                     265 	ld	a, (bc)
      0000E5 F8 0C                  266 	ldhl	sp,	#12
      0000E7 F5                     267 	push	af
      0000E8 2A                     268 	ld	a,	(hl+)
      0000E9 66                     269 	ld	h, (hl)
      0000EA 6F                     270 	ld	l, a
      0000EB F1                     271 	pop	af
      0000EC 77                     272 	ld	(hl), a
                                    273 ;D:\Business\LaroldsJubilantJunkyard\game-remakes\space-invaders\source\main\default\States\Gameplay\invaders.c:28: set_bkg_tile_xy(invaders[i].column,invaders[i].row,invaders[i].originalTile);
      0000ED F8 09                  274 	ldhl	sp,#9
      0000EF 5E                     275 	ld	e, (hl)
      0000F0 23                     276 	inc	hl
      0000F1 56                     277 	ld	d, (hl)
      0000F2 F5                     278 	push	af
      0000F3 1A                     279 	ld	a, (de)
      0000F4 4F                     280 	ld	c, a
      0000F5 F1                     281 	pop	af
      0000F6 F8 05                  282 	ldhl	sp,#5
      0000F8 5E                     283 	ld	e, (hl)
      0000F9 23                     284 	inc	hl
      0000FA 56                     285 	ld	d, (hl)
      0000FB F5                     286 	push	af
      0000FC 1A                     287 	ld	a, (de)
      0000FD 6F                     288 	ld	l, a
                                    289 ;	spillPairReg hl
                                    290 ;	spillPairReg hl
      0000FE F1                     291 	pop	af
      0000FF 47                     292 	ld	b, a
      000100 C5                     293 	push	bc
      000101 7D                     294 	ld	a, l
      000102 F5                     295 	push	af
      000103 33                     296 	inc	sp
      000104 CDr00r00               297 	call	_set_bkg_tile_xy
      000107 E8 03                  298 	add	sp, #3
                                    299 ;D:\Business\LaroldsJubilantJunkyard\game-remakes\space-invaders\source\main\default\States\Gameplay\invaders.c:20: for(uint8_t i=0;i<40;i++){
      000109 F8 0E                  300 	ldhl	sp,	#14
      00010B 34                     301 	inc	(hl)
      00010C C3r1Cr00               302 	jp	00103$
      00010F                        303 00101$:
                                    304 ;D:\Business\LaroldsJubilantJunkyard\game-remakes\space-invaders\source\main\default\States\Gameplay\invaders.c:32: topRow=2;
      00010F 21rCAr00               305 	ld	hl, #_topRow
      000112 36 02                  306 	ld	(hl), #0x02
                                    307 ;D:\Business\LaroldsJubilantJunkyard\game-remakes\space-invaders\source\main\default\States\Gameplay\invaders.c:33: shotTimer=SHOT_TIMER_MAX;
      000114 21rCBr00               308 	ld	hl, #_shotTimer
      000117 36 32                  309 	ld	(hl), #0x32
                                    310 ;D:\Business\LaroldsJubilantJunkyard\game-remakes\space-invaders\source\main\default\States\Gameplay\invaders.c:34: slideDir=-1;
      000119 21r00r00               311 	ld	hl, #_slideDir
      00011C 36 FF                  312 	ld	(hl), #0xff
                                    313 ;D:\Business\LaroldsJubilantJunkyard\game-remakes\space-invaders\source\main\default\States\Gameplay\invaders.c:35: moveRow=0;
      00011E 21r00r00               314 	ld	hl, #_moveRow
      000121 36 00                  315 	ld	(hl), #0x00
                                    316 ;D:\Business\LaroldsJubilantJunkyard\game-remakes\space-invaders\source\main\default\States\Gameplay\invaders.c:36: rowsAtEnd=0;
      000123 21r01r00               317 	ld	hl, #_rowsAtEnd
      000126 36 00                  318 	ld	(hl), #0x00
                                    319 ;D:\Business\LaroldsJubilantJunkyard\game-remakes\space-invaders\source\main\default\States\Gameplay\invaders.c:37: invaderCounter=0;
      000128 21rC9r00               320 	ld	hl, #_invaderCounter
      00012B 36 00                  321 	ld	(hl), #0x00
                                    322 ;D:\Business\LaroldsJubilantJunkyard\game-remakes\space-invaders\source\main\default\States\Gameplay\invaders.c:38: invaderSpeed=3;
      00012D 21rC8r00               323 	ld	hl, #_invaderSpeed
      000130 36 03                  324 	ld	(hl), #0x03
                                    325 ;D:\Business\LaroldsJubilantJunkyard\game-remakes\space-invaders\source\main\default\States\Gameplay\invaders.c:39: invadersRemaining=40;
      000132 21r00r00               326 	ld	hl, #_invadersRemaining
      000135 36 28                  327 	ld	(hl), #0x28
                                    328 ;D:\Business\LaroldsJubilantJunkyard\game-remakes\space-invaders\source\main\default\States\Gameplay\invaders.c:40: }
      000137 E8 0F                  329 	add	sp, #15
      000139 C9                     330 	ret
      00013A                        331 _tiles:
      00013A 19                     332 	.db #0x19	; 25
      00013B 12                     333 	.db #0x12	; 18
      00013C 13                     334 	.db #0x13	; 19
      00013D 14                     335 	.db #0x14	; 20
      00013E 15                     336 	.db #0x15	; 21
      00013F 16                     337 	.db #0x16	; 22
      000140 17                     338 	.db #0x17	; 23
      000141 18                     339 	.db #0x18	; 24
      000142 19                     340 	.db #0x19	; 25
                                    341 ;D:\Business\LaroldsJubilantJunkyard\game-remakes\space-invaders\source\main\default\States\Gameplay\invaders.c:42: void InvaderCheckPlayerCollision(uint8_t i){
                                    342 ;	---------------------------------
                                    343 ; Function InvaderCheckPlayerCollision
                                    344 ; ---------------------------------
      000143                        345 _InvaderCheckPlayerCollision::
      000143 3B                     346 	dec	sp
      000144 3B                     347 	dec	sp
                                    348 ;D:\Business\LaroldsJubilantJunkyard\game-remakes\space-invaders\source\main\default\States\Gameplay\invaders.c:44: uint8_t playerColumn=paddle.x/8;
      000145 FAr00r00               349 	ld	a, (#_paddle + 0)
      000148 4F                     350 	ld	c, a
      000149 06 00                  351 	ld	b, #0x00
      00014B 69                     352 	ld	l, c
                                    353 ;	spillPairReg hl
                                    354 ;	spillPairReg hl
      00014C 60                     355 	ld	h, b
                                    356 ;	spillPairReg hl
                                    357 ;	spillPairReg hl
      00014D CB 78                  358 	bit	7, b
      00014F 28 04                  359 	jr	Z, 00106$
      000151 21 07 00               360 	ld	hl, #0x0007
      000154 09                     361 	add	hl, bc
      000155                        362 00106$:
      000155 4D                     363 	ld	c, l
      000156 44                     364 	ld	b, h
      000157 CB 28                  365 	sra	b
      000159 CB 19                  366 	rr	c
      00015B CB 28                  367 	sra	b
      00015D CB 19                  368 	rr	c
      00015F CB 28                  369 	sra	b
      000161 CB 19                  370 	rr	c
      000163 F8 00                  371 	ldhl	sp,	#0
      000165 71                     372 	ld	(hl), c
                                    373 ;D:\Business\LaroldsJubilantJunkyard\game-remakes\space-invaders\source\main\default\States\Gameplay\invaders.c:45: uint8_t playerRow=paddle.y/8;
      000166 FAr01r00               374 	ld	a, (#(_paddle + 1) + 0)
      000169 4F                     375 	ld	c, a
      00016A 06 00                  376 	ld	b, #0x00
      00016C 69                     377 	ld	l, c
                                    378 ;	spillPairReg hl
                                    379 ;	spillPairReg hl
      00016D 60                     380 	ld	h, b
                                    381 ;	spillPairReg hl
                                    382 ;	spillPairReg hl
      00016E CB 78                  383 	bit	7, b
      000170 28 04                  384 	jr	Z, 00107$
      000172 21 07 00               385 	ld	hl, #0x0007
      000175 09                     386 	add	hl, bc
      000176                        387 00107$:
      000176 4D                     388 	ld	c, l
      000177 44                     389 	ld	b, h
      000178 CB 28                  390 	sra	b
      00017A CB 19                  391 	rr	c
      00017C CB 28                  392 	sra	b
      00017E CB 19                  393 	rr	c
      000180 CB 28                  394 	sra	b
      000182 CB 19                  395 	rr	c
      000184 F8 01                  396 	ldhl	sp,	#1
      000186 71                     397 	ld	(hl), c
                                    398 ;D:\Business\LaroldsJubilantJunkyard\game-remakes\space-invaders\source\main\default\States\Gameplay\invaders.c:47: if((playerColumn==invaders[i].column&&playerRow==invaders[i].row)){
      000187 F8 04                  399 	ldhl	sp,	#4
      000189 4E                     400 	ld	c, (hl)
      00018A 06 00                  401 	ld	b, #0x00
      00018C 69                     402 	ld	l, c
      00018D 60                     403 	ld	h, b
      00018E 29                     404 	add	hl, hl
      00018F 29                     405 	add	hl, hl
      000190 09                     406 	add	hl, bc
      000191 01r00r00               407 	ld	bc,#_invaders
      000194 09                     408 	add	hl,bc
      000195 4D                     409 	ld	c, l
      000196 44                     410 	ld	b, h
      000197 0A                     411 	ld	a, (bc)
      000198 5F                     412 	ld	e, a
      000199 F8 00                  413 	ldhl	sp,	#0
      00019B 7E                     414 	ld	a, (hl)
      00019C 93                     415 	sub	a, e
      00019D 20 13                  416 	jr	NZ, 00104$
      00019F 03                     417 	inc	bc
      0001A0 0A                     418 	ld	a, (bc)
      0001A1 4F                     419 	ld	c, a
      0001A2 F8 01                  420 	ldhl	sp,	#1
      0001A4 7E                     421 	ld	a, (hl)
      0001A5 91                     422 	sub	a, c
      0001A6 20 0A                  423 	jr	NZ, 00104$
                                    424 ;D:\Business\LaroldsJubilantJunkyard\game-remakes\space-invaders\source\main\default\States\Gameplay\invaders.c:48: paddle.dead=1;
      0001A8 21r02r00               425 	ld	hl, #(_paddle + 2)
      0001AB 36 01                  426 	ld	(hl), #0x01
                                    427 ;D:\Business\LaroldsJubilantJunkyard\game-remakes\space-invaders\source\main\default\States\Gameplay\invaders.c:49: paddle.lives=0;
      0001AD 21r03r00               428 	ld	hl, #(_paddle + 3)
      0001B0 36 00                  429 	ld	(hl), #0x00
      0001B2                        430 00104$:
                                    431 ;D:\Business\LaroldsJubilantJunkyard\game-remakes\space-invaders\source\main\default\States\Gameplay\invaders.c:51: }
      0001B2 33                     432 	inc	sp
      0001B3 33                     433 	inc	sp
      0001B4 C9                     434 	ret
                                    435 ;D:\Business\LaroldsJubilantJunkyard\game-remakes\space-invaders\source\main\default\States\Gameplay\invaders.c:53: void UpdateInvaderTiles(uint8_t i){
                                    436 ;	---------------------------------
                                    437 ; Function UpdateInvaderTiles
                                    438 ; ---------------------------------
      0001B5                        439 _UpdateInvaderTiles::
      0001B5 E8 F8                  440 	add	sp, #-8
                                    441 ;D:\Business\LaroldsJubilantJunkyard\game-remakes\space-invaders\source\main\default\States\Gameplay\invaders.c:56: if(invaders[i].active==0){
      0001B7 F8 0A                  442 	ldhl	sp,	#10
      0001B9 4E                     443 	ld	c, (hl)
      0001BA 06 00                  444 	ld	b, #0x00
      0001BC 69                     445 	ld	l, c
      0001BD 60                     446 	ld	h, b
      0001BE 29                     447 	add	hl, hl
      0001BF 29                     448 	add	hl, hl
      0001C0 09                     449 	add	hl, bc
      0001C1 01r00r00               450 	ld	bc,#_invaders
      0001C4 09                     451 	add	hl,bc
      0001C5 33                     452 	inc	sp
      0001C6 33                     453 	inc	sp
      0001C7 4D                     454 	ld	c, l
      0001C8 44                     455 	ld	b, h
      0001C9 C5                     456 	push	bc
      0001CA 03                     457 	inc	bc
      0001CB 03                     458 	inc	bc
      0001CC 0A                     459 	ld	a, (bc)
      0001CD F8 07                  460 	ldhl	sp,	#7
      0001CF 77                     461 	ld	(hl), a
                                    462 ;D:\Business\LaroldsJubilantJunkyard\game-remakes\space-invaders\source\main\default\States\Gameplay\invaders.c:58: if(invaders[i].slide>=0)set_bkg_tile_xy(invaders[i].column+1,invaders[i].row,0);
      0001D0 D1                     463 	pop	de
      0001D1 D5                     464 	push	de
      0001D2 21 04 00               465 	ld	hl, #0x0004
      0001D5 19                     466 	add	hl, de
      0001D6 E5                     467 	push	hl
      0001D7 7D                     468 	ld	a, l
      0001D8 F8 04                  469 	ldhl	sp,	#4
      0001DA 77                     470 	ld	(hl), a
      0001DB E1                     471 	pop	hl
      0001DC 7C                     472 	ld	a, h
      0001DD F8 03                  473 	ldhl	sp,	#3
      0001DF 77                     474 	ld	(hl), a
      0001E0 D1                     475 	pop	de
      0001E1 D5                     476 	push	de
      0001E2 6B                     477 	ld	l, e
      0001E3 62                     478 	ld	h, d
      0001E4 23                     479 	inc	hl
      0001E5 E5                     480 	push	hl
      0001E6 7D                     481 	ld	a, l
      0001E7 F8 06                  482 	ldhl	sp,	#6
      0001E9 77                     483 	ld	(hl), a
      0001EA E1                     484 	pop	hl
      0001EB 7C                     485 	ld	a, h
      0001EC F8 05                  486 	ldhl	sp,	#5
                                    487 ;D:\Business\LaroldsJubilantJunkyard\game-remakes\space-invaders\source\main\default\States\Gameplay\invaders.c:65: }else if(invaders[i].slide==0){
      0001EE 32                     488 	ld	(hl-), a
      0001EF 2B                     489 	dec	hl
      0001F0 2B                     490 	dec	hl
      0001F1 2A                     491 	ld	a, (hl+)
      0001F2 5F                     492 	ld	e, a
      0001F3 56                     493 	ld	d, (hl)
      0001F4 1A                     494 	ld	a, (de)
                                    495 ;D:\Business\LaroldsJubilantJunkyard\game-remakes\space-invaders\source\main\default\States\Gameplay\invaders.c:58: if(invaders[i].slide>=0)set_bkg_tile_xy(invaders[i].column+1,invaders[i].row,0);
      0001F5 47                     496 	ld	b, a
      0001F6 07                     497 	rlca
      0001F7 E6 01                  498 	and	a,#0x01
      0001F9 4F                     499 	ld	c, a
                                    500 ;D:\Business\LaroldsJubilantJunkyard\game-remakes\space-invaders\source\main\default\States\Gameplay\invaders.c:56: if(invaders[i].active==0){
      0001FA F8 07                  501 	ldhl	sp,	#7
      0001FC 7E                     502 	ld	a, (hl)
      0001FD B7                     503 	or	a, a
      0001FE 20 45                  504 	jr	NZ, 00113$
                                    505 ;D:\Business\LaroldsJubilantJunkyard\game-remakes\space-invaders\source\main\default\States\Gameplay\invaders.c:58: if(invaders[i].slide>=0)set_bkg_tile_xy(invaders[i].column+1,invaders[i].row,0);
                                    506 ;D:\Business\LaroldsJubilantJunkyard\game-remakes\space-invaders\source\main\default\States\Gameplay\invaders.c:67: set_bkg_tile_xy(invaders[i].column,invaders[i].row,invaders[i].originalTile);
      000200 2B                     507 	dec	hl
      000201 2B                     508 	dec	hl
      000202 2B                     509 	dec	hl
      000203 D1                     510 	pop	de
      000204 D5                     511 	push	de
      000205 1A                     512 	ld	a, (de)
      000206 47                     513 	ld	b, a
      000207 2A                     514 	ld	a, (hl+)
      000208 5F                     515 	ld	e, a
      000209 56                     516 	ld	d, (hl)
      00020A 1A                     517 	ld	a, (de)
                                    518 ;D:\Business\LaroldsJubilantJunkyard\game-remakes\space-invaders\source\main\default\States\Gameplay\invaders.c:58: if(invaders[i].slide>=0)set_bkg_tile_xy(invaders[i].column+1,invaders[i].row,0);
      00020B 58                     519 	ld	e, b
      00020C CB 41                  520 	bit	0, c
      00020E 20 11                  521 	jr	NZ, 00102$
      000210 43                     522 	ld	b, e
      000211 04                     523 	inc	b
      000212 26 00                  524 	ld	h, #0x00
                                    525 ;	spillPairReg hl
                                    526 ;	spillPairReg hl
      000214 E5                     527 	push	hl
      000215 33                     528 	inc	sp
      000216 F5                     529 	push	af
      000217 33                     530 	inc	sp
      000218 C5                     531 	push	bc
      000219 33                     532 	inc	sp
      00021A CDr00r00               533 	call	_set_bkg_tile_xy
      00021D E8 03                  534 	add	sp, #3
      00021F 18 0C                  535 	jr	00103$
      000221                        536 00102$:
                                    537 ;D:\Business\LaroldsJubilantJunkyard\game-remakes\space-invaders\source\main\default\States\Gameplay\invaders.c:59: else set_bkg_tile_xy(invaders[i].column-1,invaders[i].row,0);
      000221 1D                     538 	dec	e
      000222 26 00                  539 	ld	h, #0x00
                                    540 ;	spillPairReg hl
                                    541 ;	spillPairReg hl
      000224 E5                     542 	push	hl
      000225 33                     543 	inc	sp
      000226 57                     544 	ld	d,a
      000227 D5                     545 	push	de
      000228 CDr00r00               546 	call	_set_bkg_tile_xy
      00022B E8 03                  547 	add	sp, #3
      00022D                        548 00103$:
                                    549 ;D:\Business\LaroldsJubilantJunkyard\game-remakes\space-invaders\source\main\default\States\Gameplay\invaders.c:62: set_bkg_tile_xy(invaders[i].column,invaders[i].row,0);
      00022D F8 04                  550 	ldhl	sp,#4
      00022F 2A                     551 	ld	a, (hl+)
      000230 5F                     552 	ld	e, a
      000231 56                     553 	ld	d, (hl)
      000232 1A                     554 	ld	a, (de)
      000233 47                     555 	ld	b, a
      000234 D1                     556 	pop	de
      000235 D5                     557 	push	de
      000236 1A                     558 	ld	a, (de)
      000237 26 00                  559 	ld	h, #0x00
                                    560 ;	spillPairReg hl
                                    561 ;	spillPairReg hl
      000239 68                     562 	ld	l, b
      00023A E5                     563 	push	hl
      00023B F5                     564 	push	af
      00023C 33                     565 	inc	sp
      00023D CDr00r00               566 	call	_set_bkg_tile_xy
      000240 E8 03                  567 	add	sp, #3
      000242 C3r36r03               568 	jp	00115$
      000245                        569 00113$:
                                    570 ;D:\Business\LaroldsJubilantJunkyard\game-remakes\space-invaders\source\main\default\States\Gameplay\invaders.c:67: set_bkg_tile_xy(invaders[i].column,invaders[i].row,invaders[i].originalTile);
      000245 D1                     571 	pop	de
      000246 D5                     572 	push	de
      000247 21 03 00               573 	ld	hl, #0x0003
      00024A 19                     574 	add	hl, de
      00024B E5                     575 	push	hl
      00024C 7D                     576 	ld	a, l
      00024D F8 08                  577 	ldhl	sp,	#8
      00024F 77                     578 	ld	(hl), a
      000250 E1                     579 	pop	hl
      000251 7C                     580 	ld	a, h
      000252 F8 07                  581 	ldhl	sp,	#7
      000254 77                     582 	ld	(hl), a
                                    583 ;D:\Business\LaroldsJubilantJunkyard\game-remakes\space-invaders\source\main\default\States\Gameplay\invaders.c:65: }else if(invaders[i].slide==0){
      000255 78                     584 	ld	a, b
      000256 B7                     585 	or	a, a
      000257 20 37                  586 	jr	NZ, 00110$
                                    587 ;D:\Business\LaroldsJubilantJunkyard\game-remakes\space-invaders\source\main\default\States\Gameplay\invaders.c:67: set_bkg_tile_xy(invaders[i].column,invaders[i].row,invaders[i].originalTile);
      000259 2B                     588 	dec	hl
      00025A 2A                     589 	ld	a, (hl+)
      00025B 5F                     590 	ld	e, a
      00025C 3A                     591 	ld	a, (hl-)
      00025D 2B                     592 	dec	hl
      00025E 2B                     593 	dec	hl
      00025F 57                     594 	ld	d, a
      000260 1A                     595 	ld	a, (de)
      000261 4F                     596 	ld	c, a
      000262 2A                     597 	ld	a, (hl+)
      000263 5F                     598 	ld	e, a
      000264 56                     599 	ld	d, (hl)
      000265 1A                     600 	ld	a, (de)
      000266 47                     601 	ld	b, a
      000267 D1                     602 	pop	de
      000268 D5                     603 	push	de
      000269 1A                     604 	ld	a, (de)
      00026A 61                     605 	ld	h, c
                                    606 ;	spillPairReg hl
                                    607 ;	spillPairReg hl
      00026B 68                     608 	ld	l, b
      00026C E5                     609 	push	hl
      00026D F5                     610 	push	af
      00026E 33                     611 	inc	sp
      00026F CDr00r00               612 	call	_set_bkg_tile_xy
      000272 E8 03                  613 	add	sp, #3
                                    614 ;D:\Business\LaroldsJubilantJunkyard\game-remakes\space-invaders\source\main\default\States\Gameplay\invaders.c:68: set_bkg_tile_xy(invaders[i].column-slideDir,invaders[i].row,0);
      000274 F8 04                  615 	ldhl	sp,#4
      000276 2A                     616 	ld	a, (hl+)
      000277 5F                     617 	ld	e, a
      000278 56                     618 	ld	d, (hl)
      000279 1A                     619 	ld	a, (de)
      00027A 47                     620 	ld	b, a
      00027B D1                     621 	pop	de
      00027C D5                     622 	push	de
      00027D 1A                     623 	ld	a, (de)
      00027E 21r00r00               624 	ld	hl, #_slideDir
      000281 96                     625 	sub	a, (hl)
      000282 26 00                  626 	ld	h, #0x00
                                    627 ;	spillPairReg hl
                                    628 ;	spillPairReg hl
      000284 68                     629 	ld	l, b
      000285 E5                     630 	push	hl
      000286 F5                     631 	push	af
      000287 33                     632 	inc	sp
      000288 CDr00r00               633 	call	_set_bkg_tile_xy
      00028B E8 03                  634 	add	sp, #3
      00028D C3r36r03               635 	jp	00115$
      000290                        636 00110$:
                                    637 ;D:\Business\LaroldsJubilantJunkyard\game-remakes\space-invaders\source\main\default\States\Gameplay\invaders.c:71: } else if(invaders[i].slide>0){
      000290 58                     638 	ld	e, b
      000291 AF                     639 	xor	a, a
      000292 57                     640 	ld	d, a
      000293 90                     641 	sub	a, b
      000294 CB 7B                  642 	bit	7, e
      000296 28 07                  643 	jr	Z, 00142$
      000298 CB 7A                  644 	bit	7, d
      00029A 20 08                  645 	jr	NZ, 00143$
      00029C BF                     646 	cp	a, a
      00029D 18 05                  647 	jr	00143$
      00029F                        648 00142$:
      00029F CB 7A                  649 	bit	7, d
      0002A1 28 01                  650 	jr	Z, 00143$
      0002A3 37                     651 	scf
      0002A4                        652 00143$:
      0002A4 30 48                  653 	jr	NC, 00107$
                                    654 ;D:\Business\LaroldsJubilantJunkyard\game-remakes\space-invaders\source\main\default\States\Gameplay\invaders.c:74: set_bkg_tile_xy(invaders[i].column,invaders[i].row,invaders[i].originalTile+16-invaders[i].slide);
      0002A6 F8 06                  655 	ldhl	sp,#6
      0002A8 2A                     656 	ld	a, (hl+)
      0002A9 5F                     657 	ld	e, a
      0002AA 3A                     658 	ld	a, (hl-)
      0002AB 2B                     659 	dec	hl
      0002AC 2B                     660 	dec	hl
      0002AD 57                     661 	ld	d, a
      0002AE 1A                     662 	ld	a, (de)
      0002AF C6 10                  663 	add	a, #0x10
      0002B1 90                     664 	sub	a, b
      0002B2 4F                     665 	ld	c, a
      0002B3 2A                     666 	ld	a, (hl+)
      0002B4 5F                     667 	ld	e, a
      0002B5 56                     668 	ld	d, (hl)
      0002B6 1A                     669 	ld	a, (de)
      0002B7 47                     670 	ld	b, a
      0002B8 D1                     671 	pop	de
      0002B9 D5                     672 	push	de
      0002BA 1A                     673 	ld	a, (de)
      0002BB 61                     674 	ld	h, c
                                    675 ;	spillPairReg hl
                                    676 ;	spillPairReg hl
      0002BC 68                     677 	ld	l, b
      0002BD E5                     678 	push	hl
      0002BE F5                     679 	push	af
      0002BF 33                     680 	inc	sp
      0002C0 CDr00r00               681 	call	_set_bkg_tile_xy
      0002C3 E8 03                  682 	add	sp, #3
                                    683 ;D:\Business\LaroldsJubilantJunkyard\game-remakes\space-invaders\source\main\default\States\Gameplay\invaders.c:75: set_bkg_tile_xy(invaders[i].column+1,invaders[i].row,invaders[i].originalTile+8-invaders[i].slide);
      0002C5 F8 06                  684 	ldhl	sp,#6
      0002C7 2A                     685 	ld	a, (hl+)
      0002C8 5F                     686 	ld	e, a
      0002C9 56                     687 	ld	d, (hl)
      0002CA 1A                     688 	ld	a, (de)
      0002CB C6 08                  689 	add	a, #0x08
      0002CD F8 02                  690 	ldhl	sp,#2
      0002CF 5E                     691 	ld	e, (hl)
      0002D0 23                     692 	inc	hl
      0002D1 56                     693 	ld	d, (hl)
      0002D2 23                     694 	inc	hl
      0002D3 F5                     695 	push	af
      0002D4 1A                     696 	ld	a, (de)
      0002D5 4F                     697 	ld	c, a
      0002D6 F1                     698 	pop	af
      0002D7 91                     699 	sub	a, c
      0002D8 4F                     700 	ld	c, a
      0002D9 2A                     701 	ld	a, (hl+)
      0002DA 5F                     702 	ld	e, a
      0002DB 56                     703 	ld	d, (hl)
      0002DC 1A                     704 	ld	a, (de)
      0002DD 47                     705 	ld	b, a
      0002DE D1                     706 	pop	de
      0002DF D5                     707 	push	de
      0002E0 1A                     708 	ld	a, (de)
      0002E1 3C                     709 	inc	a
      0002E2 61                     710 	ld	h, c
                                    711 ;	spillPairReg hl
                                    712 ;	spillPairReg hl
      0002E3 68                     713 	ld	l, b
      0002E4 E5                     714 	push	hl
      0002E5 F5                     715 	push	af
      0002E6 33                     716 	inc	sp
      0002E7 CDr00r00               717 	call	_set_bkg_tile_xy
      0002EA E8 03                  718 	add	sp, #3
      0002EC 18 48                  719 	jr	00115$
      0002EE                        720 00107$:
                                    721 ;D:\Business\LaroldsJubilantJunkyard\game-remakes\space-invaders\source\main\default\States\Gameplay\invaders.c:79: }else if(invaders[i].slide<0){
      0002EE 79                     722 	ld	a, c
      0002EF B7                     723 	or	a, a
      0002F0 28 44                  724 	jr	Z, 00115$
                                    725 ;D:\Business\LaroldsJubilantJunkyard\game-remakes\space-invaders\source\main\default\States\Gameplay\invaders.c:81: set_bkg_tile_xy(invaders[i].column,invaders[i].row,invaders[i].originalTile-invaders[i].slide);
      0002F2 F8 06                  726 	ldhl	sp,#6
      0002F4 2A                     727 	ld	a, (hl+)
      0002F5 5F                     728 	ld	e, a
      0002F6 3A                     729 	ld	a, (hl-)
      0002F7 2B                     730 	dec	hl
      0002F8 2B                     731 	dec	hl
      0002F9 57                     732 	ld	d, a
      0002FA 1A                     733 	ld	a, (de)
      0002FB 90                     734 	sub	a, b
      0002FC 4F                     735 	ld	c, a
      0002FD 2A                     736 	ld	a, (hl+)
      0002FE 5F                     737 	ld	e, a
      0002FF 56                     738 	ld	d, (hl)
      000300 1A                     739 	ld	a, (de)
      000301 47                     740 	ld	b, a
      000302 D1                     741 	pop	de
      000303 D5                     742 	push	de
      000304 1A                     743 	ld	a, (de)
      000305 61                     744 	ld	h, c
                                    745 ;	spillPairReg hl
                                    746 ;	spillPairReg hl
      000306 68                     747 	ld	l, b
      000307 E5                     748 	push	hl
      000308 F5                     749 	push	af
      000309 33                     750 	inc	sp
      00030A CDr00r00               751 	call	_set_bkg_tile_xy
      00030D E8 03                  752 	add	sp, #3
                                    753 ;D:\Business\LaroldsJubilantJunkyard\game-remakes\space-invaders\source\main\default\States\Gameplay\invaders.c:82: set_bkg_tile_xy(invaders[i].column-1,invaders[i].row,invaders[i].originalTile+8-invaders[i].slide);
      00030F F8 06                  754 	ldhl	sp,#6
      000311 2A                     755 	ld	a, (hl+)
      000312 5F                     756 	ld	e, a
      000313 56                     757 	ld	d, (hl)
      000314 1A                     758 	ld	a, (de)
      000315 C6 08                  759 	add	a, #0x08
      000317 F8 02                  760 	ldhl	sp,#2
      000319 5E                     761 	ld	e, (hl)
      00031A 23                     762 	inc	hl
      00031B 56                     763 	ld	d, (hl)
      00031C 23                     764 	inc	hl
      00031D F5                     765 	push	af
      00031E 1A                     766 	ld	a, (de)
      00031F 4F                     767 	ld	c, a
      000320 F1                     768 	pop	af
      000321 91                     769 	sub	a, c
      000322 4F                     770 	ld	c, a
      000323 2A                     771 	ld	a, (hl+)
      000324 5F                     772 	ld	e, a
      000325 56                     773 	ld	d, (hl)
      000326 1A                     774 	ld	a, (de)
      000327 47                     775 	ld	b, a
      000328 D1                     776 	pop	de
      000329 D5                     777 	push	de
      00032A 1A                     778 	ld	a, (de)
      00032B 3D                     779 	dec	a
      00032C 61                     780 	ld	h, c
                                    781 ;	spillPairReg hl
                                    782 ;	spillPairReg hl
      00032D 68                     783 	ld	l, b
      00032E E5                     784 	push	hl
      00032F F5                     785 	push	af
      000330 33                     786 	inc	sp
      000331 CDr00r00               787 	call	_set_bkg_tile_xy
      000334 E8 03                  788 	add	sp, #3
      000336                        789 00115$:
                                    790 ;D:\Business\LaroldsJubilantJunkyard\game-remakes\space-invaders\source\main\default\States\Gameplay\invaders.c:86: }
      000336 E8 08                  791 	add	sp, #8
      000338 C9                     792 	ret
                                    793 ;D:\Business\LaroldsJubilantJunkyard\game-remakes\space-invaders\source\main\default\States\Gameplay\invaders.c:88: uint8_t SlideInvader(uint8_t i){
                                    794 ;	---------------------------------
                                    795 ; Function SlideInvader
                                    796 ; ---------------------------------
      000339                        797 _SlideInvader::
      000339 E8 FC                  798 	add	sp, #-4
                                    799 ;D:\Business\LaroldsJubilantJunkyard\game-remakes\space-invaders\source\main\default\States\Gameplay\invaders.c:90: if(invaders[i].column==0&&slideDir!=1)return 0;
      00033B F8 06                  800 	ldhl	sp,	#6
      00033D 4E                     801 	ld	c, (hl)
      00033E 06 00                  802 	ld	b, #0x00
      000340 69                     803 	ld	l, c
      000341 60                     804 	ld	h, b
      000342 29                     805 	add	hl, hl
      000343 29                     806 	add	hl, hl
      000344 09                     807 	add	hl, bc
      000345 01r00r00               808 	ld	bc,#_invaders
      000348 09                     809 	add	hl,bc
      000349 4D                     810 	ld	c, l
      00034A 44                     811 	ld	b, h
      00034B 0A                     812 	ld	a, (bc)
      00034C 5F                     813 	ld	e, a
      00034D FAr00r00               814 	ld	a, (#_slideDir)
      000350 3D                     815 	dec	a
      000351 3E 01                  816 	ld	a, #0x01
      000353 28 01                  817 	jr	Z, 00151$
      000355 AF                     818 	xor	a, a
      000356                        819 00151$:
      000356 57                     820 	ld	d, a
      000357 7B                     821 	ld	a, e
      000358 B7                     822 	or	a, a
      000359 20 08                  823 	jr	NZ, 00102$
      00035B CB 42                  824 	bit	0, d
      00035D 20 04                  825 	jr	NZ, 00102$
      00035F 1E 00                  826 	ld	e, #0x00
      000361 18 64                  827 	jr	00110$
      000363                        828 00102$:
                                    829 ;D:\Business\LaroldsJubilantJunkyard\game-remakes\space-invaders\source\main\default\States\Gameplay\invaders.c:91: if(invaders[i].column>=19&&slideDir==1)return 0;
      000363 7B                     830 	ld	a, e
      000364 D6 13                  831 	sub	a, #0x13
      000366 38 08                  832 	jr	C, 00105$
      000368 7A                     833 	ld	a, d
      000369 B7                     834 	or	a, a
      00036A 28 04                  835 	jr	Z, 00105$
      00036C 1E 00                  836 	ld	e, #0x00
      00036E 18 57                  837 	jr	00110$
      000370                        838 00105$:
                                    839 ;D:\Business\LaroldsJubilantJunkyard\game-remakes\space-invaders\source\main\default\States\Gameplay\invaders.c:94: invaders[i].slide+=slideDir*2;
      000370 21 04 00               840 	ld	hl, #0x0004
      000373 09                     841 	add	hl, bc
      000374 33                     842 	inc	sp
      000375 33                     843 	inc	sp
      000376 5D                     844 	ld	e, l
      000377 54                     845 	ld	d, h
      000378 D5                     846 	push	de
      000379 1A                     847 	ld	a, (de)
      00037A 21r00r00               848 	ld	hl, #_slideDir
      00037D 5E                     849 	ld	e, (hl)
      00037E CB 23                  850 	sla	e
      000380 83                     851 	add	a, e
      000381 F8 02                  852 	ldhl	sp,	#2
      000383 77                     853 	ld	(hl), a
      000384 D1                     854 	pop	de
      000385 D5                     855 	push	de
                                    856 ;D:\Business\LaroldsJubilantJunkyard\game-remakes\space-invaders\source\main\default\States\Gameplay\invaders.c:98: if(invaders[i].slide>7||invaders[i].slide<-7){
      000386 2A                     857 	ld	a, (hl+)
      000387 12                     858 	ld	(de), a
      000388 D1                     859 	pop	de
      000389 D5                     860 	push	de
      00038A 1A                     861 	ld	a, (de)
      00038B 32                     862 	ld	(hl-), a
      00038C 5E                     863 	ld	e, (hl)
      00038D 3E 07                  864 	ld	a,#0x07
      00038F 57                     865 	ld	d,a
      000390 96                     866 	sub	a, (hl)
      000391 CB 7B                  867 	bit	7, e
      000393 28 07                  868 	jr	Z, 00152$
      000395 CB 7A                  869 	bit	7, d
      000397 20 08                  870 	jr	NZ, 00153$
      000399 BF                     871 	cp	a, a
      00039A 18 05                  872 	jr	00153$
      00039C                        873 00152$:
      00039C CB 7A                  874 	bit	7, d
      00039E 28 01                  875 	jr	Z, 00153$
      0003A0 37                     876 	scf
      0003A1                        877 00153$:
      0003A1 38 09                  878 	jr	C, 00107$
      0003A3 F8 03                  879 	ldhl	sp,	#3
      0003A5 7E                     880 	ld	a, (hl)
      0003A6 EE 80                  881 	xor	a, #0x80
      0003A8 D6 79                  882 	sub	a, #0x79
      0003AA 30 19                  883 	jr	NC, 00108$
      0003AC                        884 00107$:
                                    885 ;D:\Business\LaroldsJubilantJunkyard\game-remakes\space-invaders\source\main\default\States\Gameplay\invaders.c:102: invaders[i].slide=0;
      0003AC E1                     886 	pop	hl
      0003AD E5                     887 	push	hl
      0003AE 36 00                  888 	ld	(hl), #0x00
                                    889 ;D:\Business\LaroldsJubilantJunkyard\game-remakes\space-invaders\source\main\default\States\Gameplay\invaders.c:103: invaders[i].column+=slideDir;
      0003B0 0A                     890 	ld	a, (bc)
      0003B1 21r00r00               891 	ld	hl, #_slideDir
      0003B4 86                     892 	add	a, (hl)
                                    893 ;D:\Business\LaroldsJubilantJunkyard\game-remakes\space-invaders\source\main\default\States\Gameplay\invaders.c:106: return(invaders[i].column==0)||(invaders[i].column>=19);
      0003B5 02                     894 	ld	(bc), a
      0003B6 B7                     895 	or	a, a
      0003B7 28 08                  896 	jr	Z, 00113$
      0003B9 D6 13                  897 	sub	a, #0x13
      0003BB 30 04                  898 	jr	NC, 00113$
      0003BD 1E 00                  899 	ld	e, #0x00
      0003BF 18 06                  900 	jr	00110$
      0003C1                        901 00113$:
      0003C1 1E 01                  902 	ld	e, #0x01
      0003C3 18 02                  903 	jr	00110$
      0003C5                        904 00108$:
                                    905 ;D:\Business\LaroldsJubilantJunkyard\game-remakes\space-invaders\source\main\default\States\Gameplay\invaders.c:109: return 0;
      0003C5 1E 00                  906 	ld	e, #0x00
      0003C7                        907 00110$:
                                    908 ;D:\Business\LaroldsJubilantJunkyard\game-remakes\space-invaders\source\main\default\States\Gameplay\invaders.c:110: }
      0003C7 E8 04                  909 	add	sp, #4
      0003C9 C9                     910 	ret
                                    911 ;D:\Business\LaroldsJubilantJunkyard\game-remakes\space-invaders\source\main\default\States\Gameplay\invaders.c:112: void InvaderTryFireBullet(uint8_t i){
                                    912 ;	---------------------------------
                                    913 ; Function InvaderTryFireBullet
                                    914 ; ---------------------------------
      0003CA                        915 _InvaderTryFireBullet::
      0003CA 3B                     916 	dec	sp
      0003CB 3B                     917 	dec	sp
                                    918 ;D:\Business\LaroldsJubilantJunkyard\game-remakes\space-invaders\source\main\default\States\Gameplay\invaders.c:117: uint8_t availableBulletSprite=GetAvailableBulletSprite();
      0003CC CDr00r00               919 	call	_GetAvailableBulletSprite
      0003CF 7B                     920 	ld	a,e
                                    921 ;D:\Business\LaroldsJubilantJunkyard\game-remakes\space-invaders\source\main\default\States\Gameplay\invaders.c:120: if(availableBulletSprite!=0){
      0003D0 B7                     922 	or	a, a
      0003D1 28 4D                  923 	jr	Z, 00105$
                                    924 ;C:/gbdk/include/gb/gb.h:1326: shadow_OAM[nb].tile=tile;
      0003D3 6B                     925 	ld	l, e
                                    926 ;	spillPairReg hl
                                    927 ;	spillPairReg hl
      0003D4 26 00                  928 	ld	h, #0x00
                                    929 ;	spillPairReg hl
                                    930 ;	spillPairReg hl
      0003D6 29                     931 	add	hl, hl
      0003D7 29                     932 	add	hl, hl
      0003D8 4D                     933 	ld	c, l
      0003D9 44                     934 	ld	b, h
      0003DA 21r01r00               935 	ld	hl,#_shadow_OAM + 1
      0003DD 09                     936 	add	hl,bc
      0003DE 23                     937 	inc	hl
      0003DF 36 03                  938 	ld	(hl), #0x03
                                    939 ;D:\Business\LaroldsJubilantJunkyard\game-remakes\space-invaders\source\main\default\States\Gameplay\invaders.c:126: move_sprite(availableBulletSprite,invaders[i].column*8+12+invaders[i].slide,invaders[i].row*8+24);
      0003E1 F8 04                  940 	ldhl	sp,	#4
      0003E3 5E                     941 	ld	e, (hl)
      0003E4 16 00                  942 	ld	d, #0x00
      0003E6 6B                     943 	ld	l, e
      0003E7 62                     944 	ld	h, d
      0003E8 29                     945 	add	hl, hl
      0003E9 29                     946 	add	hl, hl
      0003EA 19                     947 	add	hl, de
      0003EB 33                     948 	inc	sp
      0003EC 33                     949 	inc	sp
      0003ED E5                     950 	push	hl
      0003EE 11r00r00               951 	ld	de, #_invaders
      0003F1 E1                     952 	pop	hl
      0003F2 E5                     953 	push	hl
      0003F3 19                     954 	add	hl, de
                                    955 ;	spillPairReg hl
                                    956 ;	spillPairReg hl
      0003F4 5D                     957 	ld	e,l
      0003F5 54                     958 	ld	d,h
                                    959 ;	spillPairReg hl
                                    960 ;	spillPairReg hl
      0003F6 23                     961 	inc	hl
      0003F7 7E                     962 	ld	a, (hl)
      0003F8 87                     963 	add	a, a
      0003F9 87                     964 	add	a, a
      0003FA 87                     965 	add	a, a
      0003FB C6 18                  966 	add	a, #0x18
      0003FD F8 01                  967 	ldhl	sp,	#1
      0003FF 77                     968 	ld	(hl), a
      000400 1A                     969 	ld	a, (de)
      000401 87                     970 	add	a, a
      000402 87                     971 	add	a, a
      000403 87                     972 	add	a, a
      000404 C6 0C                  973 	add	a, #0x0c
      000406 6F                     974 	ld	l, a
                                    975 ;	spillPairReg hl
                                    976 ;	spillPairReg hl
      000407 13                     977 	inc	de
      000408 13                     978 	inc	de
      000409 13                     979 	inc	de
      00040A 13                     980 	inc	de
      00040B 1A                     981 	ld	a, (de)
      00040C 85                     982 	add	a, l
      00040D 5F                     983 	ld	e, a
                                    984 ;C:/gbdk/include/gb/gb.h:1399: OAM_item_t * itm = &shadow_OAM[nb];
      00040E 21r00r00               985 	ld	hl, #_shadow_OAM
      000411 09                     986 	add	hl, bc
      000412 4D                     987 	ld	c, l
      000413 44                     988 	ld	b, h
                                    989 ;C:/gbdk/include/gb/gb.h:1400: itm->y=y, itm->x=x;
      000414 F8 01                  990 	ldhl	sp,	#1
      000416 7E                     991 	ld	a, (hl)
      000417 02                     992 	ld	(bc), a
      000418 03                     993 	inc	bc
      000419 7B                     994 	ld	a, e
      00041A 02                     995 	ld	(bc), a
                                    996 ;D:\Business\LaroldsJubilantJunkyard\game-remakes\space-invaders\source\main\default\States\Gameplay\invaders.c:129: shotTimer=SHOT_TIMER_MAX;
      00041B 21rCBr00               997 	ld	hl, #_shotTimer
      00041E 36 32                  998 	ld	(hl), #0x32
      000420                        999 00105$:
                                   1000 ;D:\Business\LaroldsJubilantJunkyard\game-remakes\space-invaders\source\main\default\States\Gameplay\invaders.c:131: }
      000420 33                    1001 	inc	sp
      000421 33                    1002 	inc	sp
      000422 C9                    1003 	ret
                                   1004 ;D:\Business\LaroldsJubilantJunkyard\game-remakes\space-invaders\source\main\default\States\Gameplay\invaders.c:133: void ShiftAllInvadersDown(){
                                   1005 ;	---------------------------------
                                   1006 ; Function ShiftAllInvadersDown
                                   1007 ; ---------------------------------
      000423                       1008 _ShiftAllInvadersDown::
                                   1009 ;D:\Business\LaroldsJubilantJunkyard\game-remakes\space-invaders\source\main\default\States\Gameplay\invaders.c:136: for(uint8_t i=0;i<40;i++){
      000423 0E 00                 1010 	ld	c, #0x00
      000425                       1011 00103$:
      000425 79                    1012 	ld	a, c
      000426 D6 28                 1013 	sub	a, #0x28
      000428 30 19                 1014 	jr	NC, 00101$
                                   1015 ;D:\Business\LaroldsJubilantJunkyard\game-remakes\space-invaders\source\main\default\States\Gameplay\invaders.c:137: invaders[i].row++;
      00042A 06 00                 1016 	ld	b, #0x00
      00042C 69                    1017 	ld	l, c
      00042D 60                    1018 	ld	h, b
      00042E 29                    1019 	add	hl, hl
      00042F 29                    1020 	add	hl, hl
      000430 09                    1021 	add	hl, bc
      000431 11r00r00              1022 	ld	de, #_invaders
      000434 19                    1023 	add	hl, de
      000435 23                    1024 	inc	hl
      000436 34                    1025 	inc	(hl)
                                   1026 ;D:\Business\LaroldsJubilantJunkyard\game-remakes\space-invaders\source\main\default\States\Gameplay\invaders.c:140: UpdateInvaderTiles(i);
      000437 C5                    1027 	push	bc
      000438 79                    1028 	ld	a, c
      000439 F5                    1029 	push	af
      00043A 33                    1030 	inc	sp
      00043B CDrB5r01              1031 	call	_UpdateInvaderTiles
      00043E 33                    1032 	inc	sp
      00043F C1                    1033 	pop	bc
                                   1034 ;D:\Business\LaroldsJubilantJunkyard\game-remakes\space-invaders\source\main\default\States\Gameplay\invaders.c:136: for(uint8_t i=0;i<40;i++){
      000440 0C                    1035 	inc	c
      000441 18 E2                 1036 	jr	00103$
      000443                       1037 00101$:
                                   1038 ;D:\Business\LaroldsJubilantJunkyard\game-remakes\space-invaders\source\main\default\States\Gameplay\invaders.c:144: slideDir=-slideDir;
      000443 AF                    1039 	xor	a, a
      000444 21r00r00              1040 	ld	hl, #_slideDir
      000447 96                    1041 	sub	a, (hl)
      000448 77                    1042 	ld	(hl), a
                                   1043 ;D:\Business\LaroldsJubilantJunkyard\game-remakes\space-invaders\source\main\default\States\Gameplay\invaders.c:146: fill_bkg_rect(0,topRow,20,1,0);
      000449 AF                    1044 	xor	a, a
      00044A 67                    1045 	ld	h, a
      00044B 2E 01                 1046 	ld	l, #0x01
      00044D E5                    1047 	push	hl
      00044E 3E 14                 1048 	ld	a, #0x14
      000450 F5                    1049 	push	af
      000451 33                    1050 	inc	sp
      000452 FArCAr00              1051 	ld	a, (#_topRow)
      000455 67                    1052 	ld	h, a
      000456 2E 00                 1053 	ld	l, #0x00
      000458 E5                    1054 	push	hl
      000459 CDr00r00              1055 	call	_fill_bkg_rect
      00045C E8 05                 1056 	add	sp, #5
                                   1057 ;D:\Business\LaroldsJubilantJunkyard\game-remakes\space-invaders\source\main\default\States\Gameplay\invaders.c:149: topRow++;
      00045E 21rCAr00              1058 	ld	hl, #_topRow
      000461 34                    1059 	inc	(hl)
                                   1060 ;D:\Business\LaroldsJubilantJunkyard\game-remakes\space-invaders\source\main\default\States\Gameplay\invaders.c:150: }
      000462 C9                    1061 	ret
                                   1062 ;D:\Business\LaroldsJubilantJunkyard\game-remakes\space-invaders\source\main\default\States\Gameplay\invaders.c:152: uint8_t InvadersShouldMove(){
                                   1063 ;	---------------------------------
                                   1064 ; Function InvadersShouldMove
                                   1065 ; ---------------------------------
      000463                       1066 _InvadersShouldMove::
                                   1067 ;D:\Business\LaroldsJubilantJunkyard\game-remakes\space-invaders\source\main\default\States\Gameplay\invaders.c:153: return invaderCounter>12-topRow/2||topRow>9;
      000463 21rCAr00              1068 	ld	hl, #_topRow
      000466 4E                    1069 	ld	c, (hl)
      000467 06 00                 1070 	ld	b, #0x00
      000469 69                    1071 	ld	l, c
                                   1072 ;	spillPairReg hl
                                   1073 ;	spillPairReg hl
      00046A 60                    1074 	ld	h, b
                                   1075 ;	spillPairReg hl
                                   1076 ;	spillPairReg hl
      00046B CB 78                 1077 	bit	7, b
      00046D 28 03                 1078 	jr	Z, 00106$
      00046F 69                    1079 	ld	l, c
                                   1080 ;	spillPairReg hl
                                   1081 ;	spillPairReg hl
      000470 60                    1082 	ld	h, b
                                   1083 ;	spillPairReg hl
                                   1084 ;	spillPairReg hl
      000471 23                    1085 	inc	hl
      000472                       1086 00106$:
      000472 CB 2C                 1087 	sra	h
      000474 CB 1D                 1088 	rr	l
      000476 3E 0C                 1089 	ld	a, #0x0c
      000478 95                    1090 	sub	a, l
      000479 4F                    1091 	ld	c, a
      00047A 9F                    1092 	sbc	a, a
      00047B 94                    1093 	sub	a, h
      00047C 47                    1094 	ld	b, a
      00047D 21rC9r00              1095 	ld	hl, #_invaderCounter
      000480 6E                    1096 	ld	l, (hl)
                                   1097 ;	spillPairReg hl
                                   1098 ;	spillPairReg hl
      000481 26 00                 1099 	ld	h, #0x00
                                   1100 ;	spillPairReg hl
                                   1101 ;	spillPairReg hl
      000483 5C                    1102 	ld	e, h
      000484 50                    1103 	ld	d, b
      000485 79                    1104 	ld	a, c
      000486 95                    1105 	sub	a, l
      000487 78                    1106 	ld	a, b
      000488 9C                    1107 	sbc	a, h
      000489 CB 7B                 1108 	bit	7, e
      00048B 28 07                 1109 	jr	Z, 00122$
      00048D CB 7A                 1110 	bit	7, d
      00048F 20 08                 1111 	jr	NZ, 00123$
      000491 BF                    1112 	cp	a, a
      000492 18 05                 1113 	jr	00123$
      000494                       1114 00122$:
      000494 CB 7A                 1115 	bit	7, d
      000496 28 01                 1116 	jr	Z, 00123$
      000498 37                    1117 	scf
      000499                       1118 00123$:
      000499 38 0B                 1119 	jr	C, 00104$
      00049B 3E 09                 1120 	ld	a, #0x09
      00049D 21rCAr00              1121 	ld	hl, #_topRow
      0004A0 96                    1122 	sub	a, (hl)
      0004A1 38 03                 1123 	jr	C, 00104$
      0004A3 1E 00                 1124 	ld	e, #0x00
      0004A5 C9                    1125 	ret
      0004A6                       1126 00104$:
      0004A6 1E 01                 1127 	ld	e, #0x01
                                   1128 ;D:\Business\LaroldsJubilantJunkyard\game-remakes\space-invaders\source\main\default\States\Gameplay\invaders.c:154: }
      0004A8 C9                    1129 	ret
                                   1130 ;D:\Business\LaroldsJubilantJunkyard\game-remakes\space-invaders\source\main\default\States\Gameplay\invaders.c:156: void UpdateInvaders(){
                                   1131 ;	---------------------------------
                                   1132 ; Function UpdateInvaders
                                   1133 ; ---------------------------------
      0004A9                       1134 _UpdateInvaders::
      0004A9 E8 FB                 1135 	add	sp, #-5
                                   1136 ;D:\Business\LaroldsJubilantJunkyard\game-remakes\space-invaders\source\main\default\States\Gameplay\invaders.c:159: uint8_t anyInvaderHasReachedEndOfScreen=0;
      0004AB 0E 00                 1137 	ld	c, #0x00
                                   1138 ;D:\Business\LaroldsJubilantJunkyard\game-remakes\space-invaders\source\main\default\States\Gameplay\invaders.c:162: invaderCounter++;
      0004AD 21rC9r00              1139 	ld	hl, #_invaderCounter
      0004B0 34                    1140 	inc	(hl)
                                   1141 ;D:\Business\LaroldsJubilantJunkyard\game-remakes\space-invaders\source\main\default\States\Gameplay\invaders.c:163: if(shotTimer!=0)shotTimer--;
      0004B1 21rCBr00              1142 	ld	hl, #_shotTimer
      0004B4 7E                    1143 	ld	a, (hl)
      0004B5 B7                    1144 	or	a, a
      0004B6 28 01                 1145 	jr	Z, 00102$
      0004B8 35                    1146 	dec	(hl)
      0004B9                       1147 00102$:
                                   1148 ;D:\Business\LaroldsJubilantJunkyard\game-remakes\space-invaders\source\main\default\States\Gameplay\invaders.c:165: for(uint8_t i=moveRow*8;i<moveRow*8+8;i++){
      0004B9 FAr00r00              1149 	ld	a, (#_moveRow)
      0004BC 87                    1150 	add	a, a
      0004BD 87                    1151 	add	a, a
      0004BE 87                    1152 	add	a, a
      0004BF F8 04                 1153 	ldhl	sp,	#4
      0004C1 77                    1154 	ld	(hl), a
      0004C2                       1155 00126$:
      0004C2 21r00r00              1156 	ld	hl, #_moveRow
      0004C5 6E                    1157 	ld	l, (hl)
                                   1158 ;	spillPairReg hl
                                   1159 ;	spillPairReg hl
      0004C6 26 00                 1160 	ld	h, #0x00
                                   1161 ;	spillPairReg hl
                                   1162 ;	spillPairReg hl
      0004C8 29                    1163 	add	hl, hl
      0004C9 29                    1164 	add	hl, hl
      0004CA 29                    1165 	add	hl, hl
      0004CB 5D                    1166 	ld	e, l
      0004CC 54                    1167 	ld	d, h
      0004CD 21 08 00              1168 	ld	hl, #0x0008
      0004D0 19                    1169 	add	hl, de
      0004D1 33                    1170 	inc	sp
      0004D2 33                    1171 	inc	sp
      0004D3 E5                    1172 	push	hl
      0004D4 F8 04                 1173 	ldhl	sp,	#4
      0004D6 3A                    1174 	ld	a, (hl-)
      0004D7 2B                    1175 	dec	hl
      0004D8 22                    1176 	ld	(hl+), a
      0004D9 36 00                 1177 	ld	(hl), #0x00
      0004DB F8 02                 1178 	ldhl	sp,	#2
      0004DD 5D                    1179 	ld	e, l
      0004DE 54                    1180 	ld	d, h
      0004DF F8 00                 1181 	ldhl	sp,	#0
      0004E1 1A                    1182 	ld	a, (de)
      0004E2 13                    1183 	inc	de
      0004E3 96                    1184 	sub	a, (hl)
      0004E4 23                    1185 	inc	hl
      0004E5 1A                    1186 	ld	a, (de)
      0004E6 9E                    1187 	sbc	a, (hl)
      0004E7 1A                    1188 	ld	a, (de)
      0004E8 57                    1189 	ld	d, a
      0004E9 CB 7E                 1190 	bit	7, (hl)
      0004EB 28 07                 1191 	jr	Z, 00196$
      0004ED CB 7A                 1192 	bit	7, d
      0004EF 20 08                 1193 	jr	NZ, 00197$
      0004F1 BF                    1194 	cp	a, a
      0004F2 18 05                 1195 	jr	00197$
      0004F4                       1196 00196$:
      0004F4 CB 7A                 1197 	bit	7, d
      0004F6 28 01                 1198 	jr	Z, 00197$
      0004F8 37                    1199 	scf
      0004F9                       1200 00197$:
      0004F9 30 6A                 1201 	jr	NC, 00112$
                                   1202 ;D:\Business\LaroldsJubilantJunkyard\game-remakes\space-invaders\source\main\default\States\Gameplay\invaders.c:168: if(invaders[i].active==1){
      0004FB F8 04                 1203 	ldhl	sp,	#4
      0004FD 5E                    1204 	ld	e, (hl)
      0004FE 16 00                 1205 	ld	d, #0x00
      000500 6B                    1206 	ld	l, e
      000501 62                    1207 	ld	h, d
      000502 29                    1208 	add	hl, hl
      000503 29                    1209 	add	hl, hl
      000504 19                    1210 	add	hl, de
      000505 11r00r00              1211 	ld	de, #_invaders
      000508 19                    1212 	add	hl, de
      000509 23                    1213 	inc	hl
      00050A 23                    1214 	inc	hl
      00050B 7E                    1215 	ld	a, (hl)
      00050C 3D                    1216 	dec	a
      00050D 20 2B                 1217 	jr	NZ, 00107$
                                   1218 ;D:\Business\LaroldsJubilantJunkyard\game-remakes\space-invaders\source\main\default\States\Gameplay\invaders.c:170: if(shotTimer==0&&RandomNumber(0,100)<10){
      00050F FArCBr00              1219 	ld	a, (#_shotTimer)
      000512 B7                    1220 	or	a, a
      000513 20 1A                 1221 	jr	NZ, 00104$
      000515 C5                    1222 	push	bc
      000516 21 00 64              1223 	ld	hl, #0x6400
      000519 E5                    1224 	push	hl
      00051A CDr00r00              1225 	call	_RandomNumber
      00051D E1                    1226 	pop	hl
      00051E 7B                    1227 	ld	a, e
      00051F C1                    1228 	pop	bc
      000520 D6 0A                 1229 	sub	a, #0x0a
      000522 30 0B                 1230 	jr	NC, 00104$
                                   1231 ;D:\Business\LaroldsJubilantJunkyard\game-remakes\space-invaders\source\main\default\States\Gameplay\invaders.c:171: InvaderTryFireBullet(i);
      000524 C5                    1232 	push	bc
      000525 F8 06                 1233 	ldhl	sp,	#6
      000527 7E                    1234 	ld	a, (hl)
      000528 F5                    1235 	push	af
      000529 33                    1236 	inc	sp
      00052A CDrCAr03              1237 	call	_InvaderTryFireBullet
      00052D 33                    1238 	inc	sp
      00052E C1                    1239 	pop	bc
      00052F                       1240 00104$:
                                   1241 ;D:\Business\LaroldsJubilantJunkyard\game-remakes\space-invaders\source\main\default\States\Gameplay\invaders.c:174: InvaderCheckPlayerCollision(i);
      00052F C5                    1242 	push	bc
      000530 F8 06                 1243 	ldhl	sp,	#6
      000532 7E                    1244 	ld	a, (hl)
      000533 F5                    1245 	push	af
      000534 33                    1246 	inc	sp
      000535 CDr43r01              1247 	call	_InvaderCheckPlayerCollision
      000538 33                    1248 	inc	sp
      000539 C1                    1249 	pop	bc
      00053A                       1250 00107$:
                                   1251 ;D:\Business\LaroldsJubilantJunkyard\game-remakes\space-invaders\source\main\default\States\Gameplay\invaders.c:178: if(InvadersShouldMove()){
      00053A C5                    1252 	push	bc
      00053B CDr63r04              1253 	call	_InvadersShouldMove
      00053E 7B                    1254 	ld	a, e
      00053F C1                    1255 	pop	bc
      000540 B7                    1256 	or	a, a
      000541 28 1C                 1257 	jr	Z, 00127$
                                   1258 ;D:\Business\LaroldsJubilantJunkyard\game-remakes\space-invaders\source\main\default\States\Gameplay\invaders.c:183: if(SlideInvader(i)){
      000543 C5                    1259 	push	bc
      000544 F8 06                 1260 	ldhl	sp,	#6
      000546 7E                    1261 	ld	a, (hl)
      000547 F5                    1262 	push	af
      000548 33                    1263 	inc	sp
      000549 CDr39r03              1264 	call	_SlideInvader
      00054C 33                    1265 	inc	sp
      00054D 7B                    1266 	ld	a, e
      00054E C1                    1267 	pop	bc
      00054F B7                    1268 	or	a, a
      000550 28 02                 1269 	jr	Z, 00109$
                                   1270 ;D:\Business\LaroldsJubilantJunkyard\game-remakes\space-invaders\source\main\default\States\Gameplay\invaders.c:184: anyInvaderHasReachedEndOfScreen=1;
      000552 0E 01                 1271 	ld	c, #0x01
      000554                       1272 00109$:
                                   1273 ;D:\Business\LaroldsJubilantJunkyard\game-remakes\space-invaders\source\main\default\States\Gameplay\invaders.c:188: UpdateInvaderTiles(i);
      000554 C5                    1274 	push	bc
      000555 F8 06                 1275 	ldhl	sp,	#6
      000557 7E                    1276 	ld	a, (hl)
      000558 F5                    1277 	push	af
      000559 33                    1278 	inc	sp
      00055A CDrB5r01              1279 	call	_UpdateInvaderTiles
      00055D 33                    1280 	inc	sp
      00055E C1                    1281 	pop	bc
      00055F                       1282 00127$:
                                   1283 ;D:\Business\LaroldsJubilantJunkyard\game-remakes\space-invaders\source\main\default\States\Gameplay\invaders.c:165: for(uint8_t i=moveRow*8;i<moveRow*8+8;i++){
      00055F F8 04                 1284 	ldhl	sp,	#4
      000561 34                    1285 	inc	(hl)
      000562 C3rC2r04              1286 	jp	00126$
      000565                       1287 00112$:
                                   1288 ;D:\Business\LaroldsJubilantJunkyard\game-remakes\space-invaders\source\main\default\States\Gameplay\invaders.c:198: if(anyInvaderHasReachedEndOfScreen){
      000565 79                    1289 	ld	a, c
      000566 B7                    1290 	or	a, a
      000567 28 11                 1291 	jr	Z, 00116$
                                   1292 ;D:\Business\LaroldsJubilantJunkyard\game-remakes\space-invaders\source\main\default\States\Gameplay\invaders.c:199: rowsAtEnd++;
      000569 21r01r00              1293 	ld	hl, #_rowsAtEnd
      00056C 34                    1294 	inc	(hl)
                                   1295 ;D:\Business\LaroldsJubilantJunkyard\game-remakes\space-invaders\source\main\default\States\Gameplay\invaders.c:200: if(rowsAtEnd==5){
      00056D 7E                    1296 	ld	a, (hl)
      00056E D6 05                 1297 	sub	a, #0x05
      000570 20 08                 1298 	jr	NZ, 00116$
                                   1299 ;D:\Business\LaroldsJubilantJunkyard\game-remakes\space-invaders\source\main\default\States\Gameplay\invaders.c:201: rowsAtEnd=0;
      000572 21r01r00              1300 	ld	hl, #_rowsAtEnd
      000575 36 00                 1301 	ld	(hl), #0x00
                                   1302 ;D:\Business\LaroldsJubilantJunkyard\game-remakes\space-invaders\source\main\default\States\Gameplay\invaders.c:205: ShiftAllInvadersDown();
      000577 CDr23r04              1303 	call	_ShiftAllInvadersDown
      00057A                       1304 00116$:
                                   1305 ;D:\Business\LaroldsJubilantJunkyard\game-remakes\space-invaders\source\main\default\States\Gameplay\invaders.c:210: if(InvadersShouldMove()){
      00057A CDr63r04              1306 	call	_InvadersShouldMove
      00057D 7B                    1307 	ld	a, e
      00057E B7                    1308 	or	a, a
      00057F 28 50                 1309 	jr	Z, 00128$
                                   1310 ;D:\Business\LaroldsJubilantJunkyard\game-remakes\space-invaders\source\main\default\States\Gameplay\invaders.c:212: if(moveRow==4||moveRow==2){
      000581 FAr00r00              1311 	ld	a, (#_moveRow)
      000584 D6 04                 1312 	sub	a, #0x04
      000586 28 07                 1313 	jr	Z, 00119$
      000588 FAr00r00              1314 	ld	a, (#_moveRow)
      00058B D6 02                 1315 	sub	a, #0x02
      00058D 20 12                 1316 	jr	NZ, 00120$
      00058F                       1317 00119$:
                                   1318 ;D:\Business\LaroldsJubilantJunkyard\game-remakes\space-invaders\source\main\default\States\Gameplay\invaders.c:213: NR21_REG=0x43;
      00058F 3E 43                 1319 	ld	a, #0x43
      000591 E0r00                 1320 	ldh	(_NR21_REG + 0), a
                                   1321 ;D:\Business\LaroldsJubilantJunkyard\game-remakes\space-invaders\source\main\default\States\Gameplay\invaders.c:214: NR22_REG=0x81;
      000593 3E 81                 1322 	ld	a, #0x81
      000595 E0r00                 1323 	ldh	(_NR22_REG + 0), a
                                   1324 ;D:\Business\LaroldsJubilantJunkyard\game-remakes\space-invaders\source\main\default\States\Gameplay\invaders.c:215: NR23_REG=0xED;
      000597 3E ED                 1325 	ld	a, #0xed
      000599 E0r00                 1326 	ldh	(_NR23_REG + 0), a
                                   1327 ;D:\Business\LaroldsJubilantJunkyard\game-remakes\space-invaders\source\main\default\States\Gameplay\invaders.c:216: NR24_REG=0xC1;
      00059B 3E C1                 1328 	ld	a, #0xc1
      00059D E0r00                 1329 	ldh	(_NR24_REG + 0), a
      00059F 18 16                 1330 	jr	00121$
      0005A1                       1331 00120$:
                                   1332 ;D:\Business\LaroldsJubilantJunkyard\game-remakes\space-invaders\source\main\default\States\Gameplay\invaders.c:217: }else if(moveRow==0){
      0005A1 FAr00r00              1333 	ld	a, (#_moveRow)
      0005A4 B7                    1334 	or	a, a
      0005A5 20 10                 1335 	jr	NZ, 00121$
                                   1336 ;D:\Business\LaroldsJubilantJunkyard\game-remakes\space-invaders\source\main\default\States\Gameplay\invaders.c:218: NR21_REG=0x83;
      0005A7 3E 83                 1337 	ld	a, #0x83
      0005A9 E0r00                 1338 	ldh	(_NR21_REG + 0), a
                                   1339 ;D:\Business\LaroldsJubilantJunkyard\game-remakes\space-invaders\source\main\default\States\Gameplay\invaders.c:219: NR22_REG=0x81;
      0005AB 3E 81                 1340 	ld	a, #0x81
      0005AD E0r00                 1341 	ldh	(_NR22_REG + 0), a
                                   1342 ;D:\Business\LaroldsJubilantJunkyard\game-remakes\space-invaders\source\main\default\States\Gameplay\invaders.c:220: NR23_REG=0xED;
      0005AF 3E ED                 1343 	ld	a, #0xed
      0005B1 E0r00                 1344 	ldh	(_NR23_REG + 0), a
                                   1345 ;D:\Business\LaroldsJubilantJunkyard\game-remakes\space-invaders\source\main\default\States\Gameplay\invaders.c:221: NR24_REG=0xC1;
      0005B3 3E C1                 1346 	ld	a, #0xc1
      0005B5 E0r00                 1347 	ldh	(_NR24_REG + 0), a
      0005B7                       1348 00121$:
                                   1349 ;D:\Business\LaroldsJubilantJunkyard\game-remakes\space-invaders\source\main\default\States\Gameplay\invaders.c:225: moveRow=(moveRow+1)%5;
      0005B7 21r00r00              1350 	ld	hl, #_moveRow
      0005BA 4E                    1351 	ld	c, (hl)
      0005BB 06 00                 1352 	ld	b, #0x00
      0005BD 03                    1353 	inc	bc
      0005BE 11 05 00              1354 	ld	de, #0x0005
      0005C1 D5                    1355 	push	de
      0005C2 C5                    1356 	push	bc
      0005C3 CDr00r00              1357 	call	__modsint
      0005C6 E8 04                 1358 	add	sp, #4
      0005C8 21r00r00              1359 	ld	hl, #_moveRow
      0005CB 73                    1360 	ld	(hl), e
                                   1361 ;D:\Business\LaroldsJubilantJunkyard\game-remakes\space-invaders\source\main\default\States\Gameplay\invaders.c:228: invaderCounter=0;
      0005CC 21rC9r00              1362 	ld	hl, #_invaderCounter
      0005CF 36 00                 1363 	ld	(hl), #0x00
      0005D1                       1364 00128$:
                                   1365 ;D:\Business\LaroldsJubilantJunkyard\game-remakes\space-invaders\source\main\default\States\Gameplay\invaders.c:232: }
      0005D1 E8 05                 1366 	add	sp, #5
      0005D3 C9                    1367 	ret
                                   1368 	.area _CODE
                                   1369 	.area _INITIALIZER
      000000                       1370 __xinit__moveRow:
      000000 00                    1371 	.db #0x00	; 0
      000001                       1372 __xinit__rowsAtEnd:
      000001 00                    1373 	.db #0x00	; 0
                                   1374 	.area _CABS (ABS)
