                                      1 ;--------------------------------------------------------
                                      2 ; File Created by SDCC : free open source ANSI-C Compiler
                                      3 ; Version 4.1.6 #12539 (MINGW32)
                                      4 ;--------------------------------------------------------
                                      5 	.module invaders
                                      6 	.optsdcc -mgbz80
                                      7 	
                                      8 ;--------------------------------------------------------
                                      9 ; Public variables in this module
                                     10 ;--------------------------------------------------------
                                     11 	.globl _RandomNumber
                                     12 	.globl _IncreaseScore
                                     13 	.globl _GetAvailableBulletSprite
                                     14 	.globl _fill_bkg_rect
                                     15 	.globl _set_bkg_tile_xy
                                     16 	.globl _shotTimer
                                     17 	.globl _invadersRemaining
                                     18 	.globl _topRow
                                     19 	.globl _invaderCounter
                                     20 	.globl _invaderSpeed
                                     21 	.globl _invaders
                                     22 	.globl _tiles
                                     23 	.globl _SetupInvaders
                                     24 	.globl _GetInvaderForNode
                                     25 	.globl _UpdateInvaders
                                     26 ;--------------------------------------------------------
                                     27 ; special function registers
                                     28 ;--------------------------------------------------------
                                     29 ;--------------------------------------------------------
                                     30 ; ram data
                                     31 ;--------------------------------------------------------
                                     32 	.area _DATA
      000000                         33 _invaders::
      000000                         34 	.ds 200
      0000C8                         35 _invaderSpeed::
      0000C8                         36 	.ds 1
      0000C9                         37 _invaderCounter::
      0000C9                         38 	.ds 1
      0000CA                         39 _topRow::
      0000CA                         40 	.ds 1
      0000CB                         41 _invadersRemaining::
      0000CB                         42 	.ds 1
      0000CC                         43 _shotTimer::
      0000CC                         44 	.ds 1
                                     45 ;--------------------------------------------------------
                                     46 ; ram data
                                     47 ;--------------------------------------------------------
                                     48 	.area _INITIALIZED
                                     49 ;--------------------------------------------------------
                                     50 ; absolute external ram data
                                     51 ;--------------------------------------------------------
                                     52 	.area _DABS (ABS)
                                     53 ;--------------------------------------------------------
                                     54 ; global & static initialisations
                                     55 ;--------------------------------------------------------
                                     56 	.area _HOME
                                     57 	.area _GSINIT
                                     58 	.area _GSFINAL
                                     59 	.area _GSINIT
                                     60 ;--------------------------------------------------------
                                     61 ; Home
                                     62 ;--------------------------------------------------------
                                     63 	.area _HOME
                                     64 	.area _HOME
                                     65 ;--------------------------------------------------------
                                     66 ; code
                                     67 ;--------------------------------------------------------
                                     68 	.area _CODE
                                     69 ;D:\Business\LaroldsJubilantJunkyard\game-remakes\space-invaders\source\main\default\States\Gameplay\invaders.c:15: void SetupInvaders(){
                                     70 ;	---------------------------------
                                     71 ; Function SetupInvaders
                                     72 ; ---------------------------------
      000000                         73 _SetupInvaders::
      000000 E8 F6                   74 	add	sp, #-10
                                     75 ;D:\Business\LaroldsJubilantJunkyard\game-remakes\space-invaders\source\main\default\States\Gameplay\invaders.c:17: UINT8 alienTypes[3]={21,29,37};
      000002 F8 00                   76 	ldhl	sp,	#0
      000004 4D                      77 	ld	c, l
      000005 44                      78 	ld	b, h
      000006 36 15                   79 	ld	(hl), #0x15
      000008 69                      80 	ld	l, c
                                     81 ;	spillPairReg hl
                                     82 ;	spillPairReg hl
      000009 60                      83 	ld	h, b
                                     84 ;	spillPairReg hl
                                     85 ;	spillPairReg hl
      00000A 23                      86 	inc	hl
      00000B 36 1D                   87 	ld	(hl), #0x1d
      00000D 03                      88 	inc	bc
      00000E 03                      89 	inc	bc
      00000F 3E 25                   90 	ld	a, #0x25
      000011 02                      91 	ld	(bc), a
                                     92 ;D:\Business\LaroldsJubilantJunkyard\game-remakes\space-invaders\source\main\default\States\Gameplay\invaders.c:19: for(UINT8 i=0;i<40;i++){
      000012 F8 09                   93 	ldhl	sp,	#9
      000014 36 00                   94 	ld	(hl), #0x00
      000016                         95 00103$:
      000016 F8 09                   96 	ldhl	sp,	#9
      000018 7E                      97 	ld	a, (hl)
      000019 D6 28                   98 	sub	a, #0x28
      00001B D2rB2r00                99 	jp	NC, 00101$
                                    100 ;D:\Business\LaroldsJubilantJunkyard\game-remakes\space-invaders\source\main\default\States\Gameplay\invaders.c:20: invaders[i].column=(i%8)*2+2;
      00001E 4E                     101 	ld	c, (hl)
      00001F 06 00                  102 	ld	b, #0x00
      000021 69                     103 	ld	l, c
      000022 60                     104 	ld	h, b
      000023 29                     105 	add	hl, hl
      000024 29                     106 	add	hl, hl
      000025 09                     107 	add	hl, bc
      000026 01r00r00               108 	ld	bc,#_invaders
      000029 09                     109 	add	hl,bc
      00002A 4D                     110 	ld	c, l
      00002B 44                     111 	ld	b, h
      00002C F8 09                  112 	ldhl	sp,	#9
      00002E 7E                     113 	ld	a, (hl)
      00002F F8 03                  114 	ldhl	sp,	#3
      000031 22                     115 	ld	(hl+), a
      000032 AF                     116 	xor	a, a
      000033 32                     117 	ld	(hl-), a
      000034 7E                     118 	ld	a, (hl)
      000035 E6 07                  119 	and	a, #0x07
      000037 87                     120 	add	a, a
      000038 C6 02                  121 	add	a, #0x02
      00003A 02                     122 	ld	(bc), a
                                    123 ;D:\Business\LaroldsJubilantJunkyard\game-remakes\space-invaders\source\main\default\States\Gameplay\invaders.c:21: invaders[i].row=(i/8);
      00003B 69                     124 	ld	l, c
      00003C 60                     125 	ld	h, b
      00003D 23                     126 	inc	hl
      00003E E5                     127 	push	hl
      00003F 7D                     128 	ld	a, l
      000040 F8 07                  129 	ldhl	sp,	#7
      000042 77                     130 	ld	(hl), a
      000043 E1                     131 	pop	hl
      000044 7C                     132 	ld	a, h
      000045 F8 06                  133 	ldhl	sp,	#6
      000047 77                     134 	ld	(hl), a
      000048 F8 03                  135 	ldhl	sp,	#3
      00004A 7E                     136 	ld	a, (hl)
      00004B F8 07                  137 	ldhl	sp,	#7
      00004D 77                     138 	ld	(hl), a
      00004E F8 04                  139 	ldhl	sp,	#4
      000050 7E                     140 	ld	a, (hl)
      000051 F8 08                  141 	ldhl	sp,	#8
      000053 77                     142 	ld	(hl), a
      000054 F8 04                  143 	ldhl	sp,	#4
      000056 CB 7E                  144 	bit	7, (hl)
      000058 28 12                  145 	jr	Z, 00107$
      00005A 2B                     146 	dec	hl
      00005B 2A                     147 	ld	a, (hl+)
      00005C 5F                     148 	ld	e, a
      00005D 56                     149 	ld	d, (hl)
      00005E 21 07 00               150 	ld	hl, #0x0007
      000061 19                     151 	add	hl, de
      000062 E5                     152 	push	hl
      000063 7D                     153 	ld	a, l
      000064 F8 09                  154 	ldhl	sp,	#9
      000066 77                     155 	ld	(hl), a
      000067 E1                     156 	pop	hl
      000068 7C                     157 	ld	a, h
      000069 F8 08                  158 	ldhl	sp,	#8
      00006B 77                     159 	ld	(hl), a
      00006C                        160 00107$:
      00006C F8 07                  161 	ldhl	sp,#7
      00006E 2A                     162 	ld	a, (hl+)
      00006F 5F                     163 	ld	e, a
      000070 56                     164 	ld	d, (hl)
      000071 CB 2A                  165 	sra	d
      000073 CB 1B                  166 	rr	e
      000075 CB 2A                  167 	sra	d
      000077 CB 1B                  168 	rr	e
      000079 CB 2A                  169 	sra	d
      00007B CB 1B                  170 	rr	e
      00007D 7B                     171 	ld	a, e
      00007E 32                     172 	ld	(hl-), a
      00007F 2B                     173 	dec	hl
      000080 2B                     174 	dec	hl
      000081 2A                     175 	ld	a, (hl+)
      000082 5F                     176 	ld	e, a
      000083 2A                     177 	ld	a, (hl+)
      000084 23                     178 	inc	hl
      000085 57                     179 	ld	d, a
      000086 7E                     180 	ld	a, (hl)
      000087 12                     181 	ld	(de), a
                                    182 ;D:\Business\LaroldsJubilantJunkyard\game-remakes\space-invaders\source\main\default\States\Gameplay\invaders.c:22: invaders[i].slide=0;
      000088 21 04 00               183 	ld	hl, #0x0004
      00008B 09                     184 	add	hl, bc
      00008C 36 00                  185 	ld	(hl), #0x00
                                    186 ;D:\Business\LaroldsJubilantJunkyard\game-remakes\space-invaders\source\main\default\States\Gameplay\invaders.c:23: invaders[i].active=1;
      00008E 69                     187 	ld	l, c
                                    188 ;	spillPairReg hl
                                    189 ;	spillPairReg hl
      00008F 60                     190 	ld	h, b
                                    191 ;	spillPairReg hl
                                    192 ;	spillPairReg hl
      000090 23                     193 	inc	hl
      000091 23                     194 	inc	hl
      000092 36 01                  195 	ld	(hl), #0x01
                                    196 ;D:\Business\LaroldsJubilantJunkyard\game-remakes\space-invaders\source\main\default\States\Gameplay\invaders.c:24: invaders[i].originalTile=21;
      000094 69                     197 	ld	l, c
                                    198 ;	spillPairReg hl
                                    199 ;	spillPairReg hl
      000095 60                     200 	ld	h, b
                                    201 ;	spillPairReg hl
                                    202 ;	spillPairReg hl
      000096 23                     203 	inc	hl
      000097 23                     204 	inc	hl
      000098 23                     205 	inc	hl
      000099 36 15                  206 	ld	(hl), #0x15
                                    207 ;D:\Business\LaroldsJubilantJunkyard\game-remakes\space-invaders\source\main\default\States\Gameplay\invaders.c:27: set_bkg_tile_xy(invaders[i].column,invaders[i].row,invaders[i].originalTile);
      00009B 5E                     208 	ld	e, (hl)
      00009C 0A                     209 	ld	a, (bc)
      00009D 63                     210 	ld	h, e
                                    211 ;	spillPairReg hl
                                    212 ;	spillPairReg hl
      00009E E5                     213 	push	hl
      00009F 33                     214 	inc	sp
      0000A0 F8 09                  215 	ldhl	sp,	#9
      0000A2 66                     216 	ld	h, (hl)
                                    217 ;	spillPairReg hl
                                    218 ;	spillPairReg hl
      0000A3 E5                     219 	push	hl
      0000A4 33                     220 	inc	sp
      0000A5 F5                     221 	push	af
      0000A6 33                     222 	inc	sp
      0000A7 CDr00r00               223 	call	_set_bkg_tile_xy
      0000AA E8 03                  224 	add	sp, #3
                                    225 ;D:\Business\LaroldsJubilantJunkyard\game-remakes\space-invaders\source\main\default\States\Gameplay\invaders.c:19: for(UINT8 i=0;i<40;i++){
      0000AC F8 09                  226 	ldhl	sp,	#9
      0000AE 34                     227 	inc	(hl)
      0000AF C3r16r00               228 	jp	00103$
      0000B2                        229 00101$:
                                    230 ;D:\Business\LaroldsJubilantJunkyard\game-remakes\space-invaders\source\main\default\States\Gameplay\invaders.c:31: topRow=0;
      0000B2 21rCAr00               231 	ld	hl, #_topRow
      0000B5 36 00                  232 	ld	(hl), #0x00
                                    233 ;D:\Business\LaroldsJubilantJunkyard\game-remakes\space-invaders\source\main\default\States\Gameplay\invaders.c:32: shotTimer=SHOT_TIMER_MAX;
      0000B7 21rCCr00               234 	ld	hl, #_shotTimer
      0000BA 36 32                  235 	ld	(hl), #0x32
                                    236 ;D:\Business\LaroldsJubilantJunkyard\game-remakes\space-invaders\source\main\default\States\Gameplay\invaders.c:33: slideDir=-1;
      0000BC 21r00r00               237 	ld	hl, #_slideDir
      0000BF 36 FF                  238 	ld	(hl), #0xff
                                    239 ;D:\Business\LaroldsJubilantJunkyard\game-remakes\space-invaders\source\main\default\States\Gameplay\invaders.c:34: invaderCounter=0;
      0000C1 21rC9r00               240 	ld	hl, #_invaderCounter
      0000C4 36 00                  241 	ld	(hl), #0x00
                                    242 ;D:\Business\LaroldsJubilantJunkyard\game-remakes\space-invaders\source\main\default\States\Gameplay\invaders.c:35: invaderSpeed=3;
      0000C6 21rC8r00               243 	ld	hl, #_invaderSpeed
      0000C9 36 03                  244 	ld	(hl), #0x03
                                    245 ;D:\Business\LaroldsJubilantJunkyard\game-remakes\space-invaders\source\main\default\States\Gameplay\invaders.c:36: invadersRemaining=40;
      0000CB 21rCBr00               246 	ld	hl, #_invadersRemaining
      0000CE 36 28                  247 	ld	(hl), #0x28
                                    248 ;D:\Business\LaroldsJubilantJunkyard\game-remakes\space-invaders\source\main\default\States\Gameplay\invaders.c:37: }
      0000D0 E8 0A                  249 	add	sp, #10
      0000D2 C9                     250 	ret
      0000D3                        251 _tiles:
      0000D3 19                     252 	.db #0x19	; 25
      0000D4 12                     253 	.db #0x12	; 18
      0000D5 13                     254 	.db #0x13	; 19
      0000D6 14                     255 	.db #0x14	; 20
      0000D7 15                     256 	.db #0x15	; 21
      0000D8 16                     257 	.db #0x16	; 22
      0000D9 17                     258 	.db #0x17	; 23
      0000DA 18                     259 	.db #0x18	; 24
      0000DB 19                     260 	.db #0x19	; 25
                                    261 ;D:\Business\LaroldsJubilantJunkyard\game-remakes\space-invaders\source\main\default\States\Gameplay\invaders.c:39: UINT8 GetInvaderForNode(UINT8 column, UINT8 row){
                                    262 ;	---------------------------------
                                    263 ; Function GetInvaderForNode
                                    264 ; ---------------------------------
      0000DC                        265 _GetInvaderForNode::
      0000DC E8 F8                  266 	add	sp, #-8
                                    267 ;D:\Business\LaroldsJubilantJunkyard\game-remakes\space-invaders\source\main\default\States\Gameplay\invaders.c:42: for(UINT8 i=0;i<40;i++){
      0000DE F8 00                  268 	ldhl	sp,	#0
      0000E0 36 00                  269 	ld	(hl), #0x00
      0000E2 F8 07                  270 	ldhl	sp,	#7
      0000E4 36 00                  271 	ld	(hl), #0x00
      0000E6                        272 00120$:
      0000E6 F8 07                  273 	ldhl	sp,	#7
      0000E8 7E                     274 	ld	a, (hl)
      0000E9 D6 28                  275 	sub	a, #0x28
      0000EB D2rACr01               276 	jp	NC, 00118$
                                    277 ;D:\Business\LaroldsJubilantJunkyard\game-remakes\space-invaders\source\main\default\States\Gameplay\invaders.c:45: if(invaders[i].active==0)continue;
      0000EE 01r00r00               278 	ld	bc, #_invaders+0
      0000F1 5E                     279 	ld	e, (hl)
      0000F2 16 00                  280 	ld	d, #0x00
      0000F4 6B                     281 	ld	l, e
      0000F5 62                     282 	ld	h, d
      0000F6 29                     283 	add	hl, hl
      0000F7 29                     284 	add	hl, hl
      0000F8 19                     285 	add	hl, de
      0000F9 09                     286 	add	hl, bc
      0000FA 4D                     287 	ld	c, l
      0000FB 44                     288 	ld	b, h
      0000FC 59                     289 	ld	e, c
      0000FD 50                     290 	ld	d, b
      0000FE 13                     291 	inc	de
      0000FF 13                     292 	inc	de
      000100 1A                     293 	ld	a, (de)
      000101 B7                     294 	or	a, a
      000102 CArA2r01               295 	jp	Z, 00117$
                                    296 ;D:\Business\LaroldsJubilantJunkyard\game-remakes\space-invaders\source\main\default\States\Gameplay\invaders.c:54: if(column==invaders[i].column+1&&row==invaders[i].row)return i;
      000105 0A                     297 	ld	a, (bc)
      000106 F8 01                  298 	ldhl	sp,	#1
      000108 77                     299 	ld	(hl), a
                                    300 ;D:\Business\LaroldsJubilantJunkyard\game-remakes\space-invaders\source\main\default\States\Gameplay\invaders.c:48: if(column==invaders[i].column&&row==invaders[i].row)return i;
      000109 69                     301 	ld	l, c
      00010A 60                     302 	ld	h, b
      00010B 23                     303 	inc	hl
      00010C E5                     304 	push	hl
      00010D 7D                     305 	ld	a, l
      00010E F8 04                  306 	ldhl	sp,	#4
      000110 77                     307 	ld	(hl), a
      000111 E1                     308 	pop	hl
      000112 7C                     309 	ld	a, h
      000113 F8 03                  310 	ldhl	sp,	#3
      000115 77                     311 	ld	(hl), a
      000116 F8 0A                  312 	ldhl	sp,	#10
      000118 7E                     313 	ld	a, (hl)
      000119 F8 01                  314 	ldhl	sp,	#1
      00011B 96                     315 	sub	a, (hl)
      00011C 20 16                  316 	jr	NZ, 00104$
      00011E F8 02                  317 	ldhl	sp,#2
      000120 2A                     318 	ld	a, (hl+)
      000121 5F                     319 	ld	e, a
      000122 56                     320 	ld	d, (hl)
      000123 1A                     321 	ld	a, (de)
      000124 F8 06                  322 	ldhl	sp,	#6
      000126 77                     323 	ld	(hl), a
      000127 F8 0B                  324 	ldhl	sp,	#11
      000129 7E                     325 	ld	a, (hl)
      00012A F8 06                  326 	ldhl	sp,	#6
      00012C 96                     327 	sub	a, (hl)
      00012D 20 05                  328 	jr	NZ, 00104$
      00012F F8 00                  329 	ldhl	sp,	#0
      000131 5E                     330 	ld	e, (hl)
      000132 18 7A                  331 	jr	00121$
      000134                        332 00104$:
                                    333 ;D:\Business\LaroldsJubilantJunkyard\game-remakes\space-invaders\source\main\default\States\Gameplay\invaders.c:51: if(invaders[i].slide>0){
      000134 03                     334 	inc	bc
      000135 03                     335 	inc	bc
      000136 03                     336 	inc	bc
      000137 03                     337 	inc	bc
      000138 0A                     338 	ld	a, (bc)
      000139 F8 04                  339 	ldhl	sp,	#4
      00013B 77                     340 	ld	(hl), a
                                    341 ;D:\Business\LaroldsJubilantJunkyard\game-remakes\space-invaders\source\main\default\States\Gameplay\invaders.c:54: if(column==invaders[i].column+1&&row==invaders[i].row)return i;
      00013C F8 0A                  342 	ldhl	sp,	#10
      00013E 7E                     343 	ld	a, (hl)
      00013F F8 05                  344 	ldhl	sp,	#5
      000141 22                     345 	ld	(hl+), a
      000142 36 00                  346 	ld	(hl), #0x00
      000144 F8 01                  347 	ldhl	sp,	#1
      000146 4E                     348 	ld	c, (hl)
      000147 06 00                  349 	ld	b, #0x00
                                    350 ;D:\Business\LaroldsJubilantJunkyard\game-remakes\space-invaders\source\main\default\States\Gameplay\invaders.c:51: if(invaders[i].slide>0){
      000149 F8 04                  351 	ldhl	sp,	#4
      00014B 5E                     352 	ld	e, (hl)
      00014C AF                     353 	xor	a, a
      00014D 57                     354 	ld	d, a
      00014E 96                     355 	sub	a, (hl)
      00014F CB 7B                  356 	bit	7, e
      000151 28 07                  357 	jr	Z, 00182$
      000153 CB 7A                  358 	bit	7, d
      000155 20 08                  359 	jr	NZ, 00183$
      000157 BF                     360 	cp	a, a
      000158 18 05                  361 	jr	00183$
      00015A                        362 00182$:
      00015A CB 7A                  363 	bit	7, d
      00015C 28 01                  364 	jr	Z, 00183$
      00015E 37                     365 	scf
      00015F                        366 00183$:
      00015F 30 1E                  367 	jr	NC, 00115$
                                    368 ;D:\Business\LaroldsJubilantJunkyard\game-remakes\space-invaders\source\main\default\States\Gameplay\invaders.c:54: if(column==invaders[i].column+1&&row==invaders[i].row)return i;
      000161 03                     369 	inc	bc
      000162 F8 05                  370 	ldhl	sp,	#5
      000164 7E                     371 	ld	a, (hl)
      000165 91                     372 	sub	a, c
      000166 20 3A                  373 	jr	NZ, 00117$
      000168 23                     374 	inc	hl
      000169 7E                     375 	ld	a, (hl)
      00016A 90                     376 	sub	a, b
      00016B 20 35                  377 	jr	NZ, 00117$
      00016D F8 02                  378 	ldhl	sp,#2
      00016F 2A                     379 	ld	a, (hl+)
      000170 5F                     380 	ld	e, a
      000171 56                     381 	ld	d, (hl)
      000172 1A                     382 	ld	a, (de)
      000173 4F                     383 	ld	c, a
      000174 F8 0B                  384 	ldhl	sp,	#11
      000176 7E                     385 	ld	a, (hl)
      000177 91                     386 	sub	a, c
      000178 20 28                  387 	jr	NZ, 00117$
      00017A F8 00                  388 	ldhl	sp,	#0
      00017C 5E                     389 	ld	e, (hl)
      00017D 18 2F                  390 	jr	00121$
      00017F                        391 00115$:
                                    392 ;D:\Business\LaroldsJubilantJunkyard\game-remakes\space-invaders\source\main\default\States\Gameplay\invaders.c:57: }else if(invaders[i].slide<0){
      00017F F8 04                  393 	ldhl	sp,	#4
      000181 CB 7E                  394 	bit	7, (hl)
      000183 28 1D                  395 	jr	Z, 00117$
                                    396 ;D:\Business\LaroldsJubilantJunkyard\game-remakes\space-invaders\source\main\default\States\Gameplay\invaders.c:60: if(column==invaders[i].column-1&&row==invaders[i].row)return i;
      000185 23                     397 	inc	hl
      000186 0B                     398 	dec	bc
      000187 7E                     399 	ld	a, (hl)
      000188 91                     400 	sub	a, c
      000189 20 17                  401 	jr	NZ, 00117$
      00018B 23                     402 	inc	hl
      00018C 7E                     403 	ld	a, (hl)
      00018D 90                     404 	sub	a, b
      00018E 20 12                  405 	jr	NZ, 00117$
      000190 F8 02                  406 	ldhl	sp,#2
      000192 2A                     407 	ld	a, (hl+)
      000193 5F                     408 	ld	e, a
      000194 56                     409 	ld	d, (hl)
      000195 1A                     410 	ld	a, (de)
      000196 4F                     411 	ld	c, a
      000197 F8 0B                  412 	ldhl	sp,	#11
      000199 7E                     413 	ld	a, (hl)
      00019A 91                     414 	sub	a, c
      00019B 20 05                  415 	jr	NZ, 00117$
      00019D F8 00                  416 	ldhl	sp,	#0
      00019F 5E                     417 	ld	e, (hl)
      0001A0 18 0C                  418 	jr	00121$
      0001A2                        419 00117$:
                                    420 ;D:\Business\LaroldsJubilantJunkyard\game-remakes\space-invaders\source\main\default\States\Gameplay\invaders.c:42: for(UINT8 i=0;i<40;i++){
      0001A2 F8 07                  421 	ldhl	sp,	#7
      0001A4 34                     422 	inc	(hl)
      0001A5 7E                     423 	ld	a, (hl)
      0001A6 F8 00                  424 	ldhl	sp,	#0
      0001A8 77                     425 	ld	(hl), a
      0001A9 C3rE6r00               426 	jp	00120$
      0001AC                        427 00118$:
                                    428 ;D:\Business\LaroldsJubilantJunkyard\game-remakes\space-invaders\source\main\default\States\Gameplay\invaders.c:65: return 255;
      0001AC 1E FF                  429 	ld	e, #0xff
      0001AE                        430 00121$:
                                    431 ;D:\Business\LaroldsJubilantJunkyard\game-remakes\space-invaders\source\main\default\States\Gameplay\invaders.c:66: }
      0001AE E8 08                  432 	add	sp, #8
      0001B0 C9                     433 	ret
                                    434 ;D:\Business\LaroldsJubilantJunkyard\game-remakes\space-invaders\source\main\default\States\Gameplay\invaders.c:67: void UpdateInvaders(){
                                    435 ;	---------------------------------
                                    436 ; Function UpdateInvaders
                                    437 ; ---------------------------------
      0001B1                        438 _UpdateInvaders::
      0001B1 E8 F6                  439 	add	sp, #-10
                                    440 ;D:\Business\LaroldsJubilantJunkyard\game-remakes\space-invaders\source\main\default\States\Gameplay\invaders.c:69: UINT8 playerColumn=paddle.x/8;
      0001B3 FAr00r00               441 	ld	a, (#_paddle + 0)
      0001B6 4F                     442 	ld	c, a
      0001B7 06 00                  443 	ld	b, #0x00
      0001B9 69                     444 	ld	l, c
                                    445 ;	spillPairReg hl
                                    446 ;	spillPairReg hl
      0001BA 60                     447 	ld	h, b
                                    448 ;	spillPairReg hl
                                    449 ;	spillPairReg hl
      0001BB CB 78                  450 	bit	7, b
      0001BD 28 04                  451 	jr	Z, 00159$
      0001BF 21 07 00               452 	ld	hl, #0x0007
      0001C2 09                     453 	add	hl, bc
      0001C3                        454 00159$:
      0001C3 4D                     455 	ld	c, l
      0001C4 44                     456 	ld	b, h
      0001C5 CB 28                  457 	sra	b
      0001C7 CB 19                  458 	rr	c
      0001C9 CB 28                  459 	sra	b
      0001CB CB 19                  460 	rr	c
      0001CD CB 28                  461 	sra	b
      0001CF CB 19                  462 	rr	c
      0001D1 F8 00                  463 	ldhl	sp,	#0
      0001D3 71                     464 	ld	(hl), c
                                    465 ;D:\Business\LaroldsJubilantJunkyard\game-remakes\space-invaders\source\main\default\States\Gameplay\invaders.c:70: UINT8 playerRow=paddle.y/8;
      0001D4 FAr01r00               466 	ld	a, (#(_paddle + 1) + 0)
      0001D7 4F                     467 	ld	c, a
      0001D8 06 00                  468 	ld	b, #0x00
      0001DA 69                     469 	ld	l, c
                                    470 ;	spillPairReg hl
                                    471 ;	spillPairReg hl
      0001DB 60                     472 	ld	h, b
                                    473 ;	spillPairReg hl
                                    474 ;	spillPairReg hl
      0001DC CB 78                  475 	bit	7, b
      0001DE 28 04                  476 	jr	Z, 00160$
      0001E0 21 07 00               477 	ld	hl, #0x0007
      0001E3 09                     478 	add	hl, bc
      0001E4                        479 00160$:
      0001E4 4D                     480 	ld	c, l
      0001E5 44                     481 	ld	b, h
      0001E6 CB 28                  482 	sra	b
      0001E8 CB 19                  483 	rr	c
      0001EA CB 28                  484 	sra	b
      0001EC CB 19                  485 	rr	c
      0001EE CB 28                  486 	sra	b
      0001F0 CB 19                  487 	rr	c
      0001F2 F8 01                  488 	ldhl	sp,	#1
                                    489 ;D:\Business\LaroldsJubilantJunkyard\game-remakes\space-invaders\source\main\default\States\Gameplay\invaders.c:72: UINT8 anyInvaderHasReachedEndOfScreen=0;
      0001F4 79                     490 	ld	a, c
      0001F5 22                     491 	ld	(hl+), a
      0001F6 36 00                  492 	ld	(hl), #0x00
                                    493 ;D:\Business\LaroldsJubilantJunkyard\game-remakes\space-invaders\source\main\default\States\Gameplay\invaders.c:74: invadersRemaining=0;
      0001F8 21rCBr00               494 	ld	hl, #_invadersRemaining
      0001FB 36 00                  495 	ld	(hl), #0x00
                                    496 ;D:\Business\LaroldsJubilantJunkyard\game-remakes\space-invaders\source\main\default\States\Gameplay\invaders.c:75: invaderCounter++;
      0001FD 21rC9r00               497 	ld	hl, #_invaderCounter
      000200 34                     498 	inc	(hl)
                                    499 ;D:\Business\LaroldsJubilantJunkyard\game-remakes\space-invaders\source\main\default\States\Gameplay\invaders.c:76: if(shotTimer!=0)shotTimer--;
      000201 21rCCr00               500 	ld	hl, #_shotTimer
      000204 7E                     501 	ld	a, (hl)
      000205 B7                     502 	or	a, a
      000206 28 01                  503 	jr	Z, 00186$
      000208 35                     504 	dec	(hl)
                                    505 ;D:\Business\LaroldsJubilantJunkyard\game-remakes\space-invaders\source\main\default\States\Gameplay\invaders.c:78: for(UINT8 i=0;i<40;i++){
      000209                        506 00186$:
      000209 F8 09                  507 	ldhl	sp,	#9
      00020B 36 00                  508 	ld	(hl), #0x00
      00020D                        509 00152$:
      00020D F8 09                  510 	ldhl	sp,	#9
      00020F 7E                     511 	ld	a, (hl)
      000210 D6 28                  512 	sub	a, #0x28
      000212 D2r60r05               513 	jp	NC, 00142$
                                    514 ;D:\Business\LaroldsJubilantJunkyard\game-remakes\space-invaders\source\main\default\States\Gameplay\invaders.c:82: if(invaders[i].active==1){
      000215 4E                     515 	ld	c, (hl)
      000216 06 00                  516 	ld	b, #0x00
      000218 69                     517 	ld	l, c
      000219 60                     518 	ld	h, b
      00021A 29                     519 	add	hl, hl
      00021B 29                     520 	add	hl, hl
      00021C 09                     521 	add	hl, bc
      00021D 01r00r00               522 	ld	bc,#_invaders
      000220 09                     523 	add	hl,bc
      000221 E5                     524 	push	hl
      000222 7D                     525 	ld	a, l
      000223 F8 07                  526 	ldhl	sp,	#7
      000225 77                     527 	ld	(hl), a
      000226 E1                     528 	pop	hl
      000227 7C                     529 	ld	a, h
      000228 F8 06                  530 	ldhl	sp,	#6
      00022A 32                     531 	ld	(hl-), a
      00022B 2A                     532 	ld	a, (hl+)
      00022C 4F                     533 	ld	c, a
      00022D 46                     534 	ld	b, (hl)
      00022E 03                     535 	inc	bc
      00022F 03                     536 	inc	bc
      000230 0A                     537 	ld	a, (bc)
      000231 3D                     538 	dec	a
      000232 C2r4Dr03               539 	jp	NZ,00121$
                                    540 ;D:\Business\LaroldsJubilantJunkyard\game-remakes\space-invaders\source\main\default\States\Gameplay\invaders.c:84: invadersRemaining++;
      000235 21rCBr00               541 	ld	hl, #_invadersRemaining
      000238 34                     542 	inc	(hl)
                                    543 ;D:\Business\LaroldsJubilantJunkyard\game-remakes\space-invaders\source\main\default\States\Gameplay\invaders.c:86: if(shotTimer==0&&RandomNumber(0,100)<10){
      000239 FArCCr00               544 	ld	a, (#_shotTimer)
      00023C B7                     545 	or	a, a
      00023D 20 61                  546 	jr	NZ, 00106$
      00023F 21 00 64               547 	ld	hl, #0x6400
      000242 E5                     548 	push	hl
      000243 CDr00r00               549 	call	_RandomNumber
      000246 E1                     550 	pop	hl
      000247 7B                     551 	ld	a, e
      000248 D6 0A                  552 	sub	a, #0x0a
      00024A 30 54                  553 	jr	NC, 00106$
                                    554 ;D:\Business\LaroldsJubilantJunkyard\game-remakes\space-invaders\source\main\default\States\Gameplay\invaders.c:88: UINT8 availableBulletSprite=GetAvailableBulletSprite();
      00024C CDr00r00               555 	call	_GetAvailableBulletSprite
      00024F 7B                     556 	ld	a, e
      000250 4F                     557 	ld	c, a
                                    558 ;D:\Business\LaroldsJubilantJunkyard\game-remakes\space-invaders\source\main\default\States\Gameplay\invaders.c:90: if(availableBulletSprite!=0){
      000251 B7                     559 	or	a, a
      000252 28 4C                  560 	jr	Z, 00106$
                                    561 ;C:/gbdk/include/gb/gb.h:1326: shadow_OAM[nb].tile=tile;
      000254 69                     562 	ld	l, c
                                    563 ;	spillPairReg hl
                                    564 ;	spillPairReg hl
      000255 26 00                  565 	ld	h, #0x00
                                    566 ;	spillPairReg hl
                                    567 ;	spillPairReg hl
      000257 29                     568 	add	hl, hl
      000258 29                     569 	add	hl, hl
      000259 4D                     570 	ld	c, l
      00025A 44                     571 	ld	b, h
      00025B 21r01r00               572 	ld	hl,#_shadow_OAM + 1
      00025E 09                     573 	add	hl,bc
      00025F 23                     574 	inc	hl
      000260 36 2A                  575 	ld	(hl), #0x2a
                                    576 ;D:\Business\LaroldsJubilantJunkyard\game-remakes\space-invaders\source\main\default\States\Gameplay\invaders.c:93: move_sprite(availableBulletSprite,invaders[i].column*8+4+invaders[i].slide*2,invaders[i].row*8+16);
      000262 F8 05                  577 	ldhl	sp,	#5
      000264 2A                     578 	ld	a, (hl+)
      000265 5F                     579 	ld	e, a
      000266 2A                     580 	ld	a, (hl+)
      000267 57                     581 	ld	d, a
      000268 13                     582 	inc	de
      000269 1A                     583 	ld	a, (de)
      00026A 87                     584 	add	a, a
      00026B 87                     585 	add	a, a
      00026C 87                     586 	add	a, a
      00026D C6 10                  587 	add	a, #0x10
      00026F 32                     588 	ld	(hl-), a
      000270 2B                     589 	dec	hl
      000271 2A                     590 	ld	a, (hl+)
      000272 5F                     591 	ld	e, a
      000273 2A                     592 	ld	a, (hl+)
      000274 23                     593 	inc	hl
      000275 57                     594 	ld	d, a
      000276 1A                     595 	ld	a, (de)
      000277 87                     596 	add	a, a
      000278 87                     597 	add	a, a
      000279 87                     598 	add	a, a
      00027A C6 04                  599 	add	a, #0x04
      00027C 32                     600 	ld	(hl-), a
      00027D 2B                     601 	dec	hl
      00027E 2B                     602 	dec	hl
      00027F 2A                     603 	ld	a, (hl+)
      000280 5F                     604 	ld	e, a
      000281 56                     605 	ld	d, (hl)
      000282 21 04 00               606 	ld	hl, #0x0004
      000285 19                     607 	add	hl, de
      000286 5D                     608 	ld	e, l
      000287 54                     609 	ld	d, h
      000288 1A                     610 	ld	a, (de)
      000289 87                     611 	add	a, a
      00028A F8 08                  612 	ldhl	sp,	#8
      00028C 86                     613 	add	a, (hl)
      00028D 5F                     614 	ld	e, a
                                    615 ;C:/gbdk/include/gb/gb.h:1399: OAM_item_t * itm = &shadow_OAM[nb];
      00028E 21r00r00               616 	ld	hl, #_shadow_OAM
      000291 09                     617 	add	hl, bc
      000292 4D                     618 	ld	c, l
      000293 44                     619 	ld	b, h
                                    620 ;C:/gbdk/include/gb/gb.h:1400: itm->y=y, itm->x=x;
      000294 F8 07                  621 	ldhl	sp,	#7
      000296 7E                     622 	ld	a, (hl)
      000297 02                     623 	ld	(bc), a
      000298 03                     624 	inc	bc
      000299 7B                     625 	ld	a, e
      00029A 02                     626 	ld	(bc), a
                                    627 ;D:\Business\LaroldsJubilantJunkyard\game-remakes\space-invaders\source\main\default\States\Gameplay\invaders.c:94: shotTimer=SHOT_TIMER_MAX;
      00029B 21rCCr00               628 	ld	hl, #_shotTimer
      00029E 36 32                  629 	ld	(hl), #0x32
      0002A0                        630 00106$:
                                    631 ;D:\Business\LaroldsJubilantJunkyard\game-remakes\space-invaders\source\main\default\States\Gameplay\invaders.c:99: if((playerColumn==invaders[i].column&&playerRow==invaders[i].row)){
      0002A0 F8 09                  632 	ldhl	sp,	#9
      0002A2 4E                     633 	ld	c, (hl)
      0002A3 06 00                  634 	ld	b, #0x00
      0002A5 69                     635 	ld	l, c
      0002A6 60                     636 	ld	h, b
      0002A7 29                     637 	add	hl, hl
      0002A8 29                     638 	add	hl, hl
      0002A9 09                     639 	add	hl, bc
      0002AA E5                     640 	push	hl
      0002AB 7D                     641 	ld	a, l
      0002AC F8 08                  642 	ldhl	sp,	#8
      0002AE 77                     643 	ld	(hl), a
      0002AF E1                     644 	pop	hl
      0002B0 7C                     645 	ld	a, h
      0002B1 F8 07                  646 	ldhl	sp,	#7
      0002B3 32                     647 	ld	(hl-), a
      0002B4 2A                     648 	ld	a, (hl+)
      0002B5 5F                     649 	ld	e, a
      0002B6 56                     650 	ld	d, (hl)
      0002B7 21r00r00               651 	ld	hl, #_invaders
      0002BA 19                     652 	add	hl, de
      0002BB 5D                     653 	ld	e, l
      0002BC 54                     654 	ld	d, h
      0002BD 1A                     655 	ld	a, (de)
      0002BE 4F                     656 	ld	c, a
      0002BF F8 00                  657 	ldhl	sp,	#0
      0002C1 7E                     658 	ld	a, (hl)
      0002C2 91                     659 	sub	a, c
      0002C3 20 14                  660 	jr	NZ, 00109$
      0002C5 6B                     661 	ld	l, e
                                    662 ;	spillPairReg hl
                                    663 ;	spillPairReg hl
      0002C6 62                     664 	ld	h, d
                                    665 ;	spillPairReg hl
                                    666 ;	spillPairReg hl
      0002C7 23                     667 	inc	hl
      0002C8 4E                     668 	ld	c, (hl)
      0002C9 F8 01                  669 	ldhl	sp,	#1
      0002CB 7E                     670 	ld	a, (hl)
      0002CC 91                     671 	sub	a, c
      0002CD 20 0A                  672 	jr	NZ, 00109$
                                    673 ;D:\Business\LaroldsJubilantJunkyard\game-remakes\space-invaders\source\main\default\States\Gameplay\invaders.c:100: paddle.dead=1;
      0002CF 21r02r00               674 	ld	hl, #_paddle + 2
      0002D2 36 01                  675 	ld	(hl), #0x01
                                    676 ;D:\Business\LaroldsJubilantJunkyard\game-remakes\space-invaders\source\main\default\States\Gameplay\invaders.c:101: paddle.lives=0;
      0002D4 01r03r00               677 	ld	bc, #_paddle + 3
      0002D7 AF                     678 	xor	a, a
      0002D8 02                     679 	ld	(bc), a
      0002D9                        680 00109$:
                                    681 ;D:\Business\LaroldsJubilantJunkyard\game-remakes\space-invaders\source\main\default\States\Gameplay\invaders.c:104: if(PlayerBulletSprite.tile!=0){
      0002D9 01r0Ar00               682 	ld	bc, #_shadow_OAM+10
      0002DC 0A                     683 	ld	a, (bc)
      0002DD B7                     684 	or	a, a
      0002DE 28 6D                  685 	jr	Z, 00121$
                                    686 ;D:\Business\LaroldsJubilantJunkyard\game-remakes\space-invaders\source\main\default\States\Gameplay\invaders.c:106: INT8 xd = (PlayerBulletSprite.x-4)-(invaders[i].column*8+4+(invaders[i].slide*2));
      0002E0 01r09r00               687 	ld	bc, #_shadow_OAM+9
      0002E3 0A                     688 	ld	a, (bc)
      0002E4 C6 FC                  689 	add	a, #0xfc
      0002E6 F8 08                  690 	ldhl	sp,	#8
      0002E8 32                     691 	ld	(hl-), a
      0002E9 1A                     692 	ld	a, (de)
      0002EA 87                     693 	add	a, a
      0002EB 87                     694 	add	a, a
      0002EC 87                     695 	add	a, a
      0002ED C6 04                  696 	add	a, #0x04
      0002EF 5F                     697 	ld	e, a
      0002F0 D5                     698 	push	de
      0002F1 11r00r00               699 	ld	de, #_invaders
      0002F4 3A                     700 	ld	a, (hl-)
      0002F5 6E                     701 	ld	l, (hl)
      0002F6 67                     702 	ld	h, a
      0002F7 19                     703 	add	hl, de
      0002F8 D1                     704 	pop	de
      0002F9 4D                     705 	ld	c, l
      0002FA 44                     706 	ld	b, h
      0002FB 21 04 00               707 	ld	hl, #0x0004
      0002FE 09                     708 	add	hl, bc
      0002FF 7E                     709 	ld	a, (hl)
      000300 87                     710 	add	a, a
      000301 83                     711 	add	a, e
      000302 5F                     712 	ld	e, a
      000303 F8 08                  713 	ldhl	sp,	#8
      000305 3A                     714 	ld	a, (hl-)
      000306 93                     715 	sub	a, e
                                    716 ;D:\Business\LaroldsJubilantJunkyard\game-remakes\space-invaders\source\main\default\States\Gameplay\invaders.c:107: INT8 yd = (PlayerBulletSprite.y-12)-invaders[i].row*8+4;
      000307 22                     717 	ld	(hl+), a
      000308 59                     718 	ld	e, c
      000309 50                     719 	ld	d, b
      00030A 13                     720 	inc	de
      00030B 1A                     721 	ld	a, (de)
      00030C 87                     722 	add	a, a
      00030D 87                     723 	add	a, a
      00030E 87                     724 	add	a, a
      00030F 5F                     725 	ld	e, a
      000310 3E F8                  726 	ld	a, #0xf8
      000312 93                     727 	sub	a, e
      000313 77                     728 	ld	(hl), a
      000314 FAr08r00               729 	ld	a, (#(_shadow_OAM + 8) + 0)
      000317 86                     730 	add	a, (hl)
                                    731 ;D:\Business\LaroldsJubilantJunkyard\game-remakes\space-invaders\source\main\default\States\Gameplay\invaders.c:109: if(xd<0)xd=-xd;
      000318 32                     732 	ld	(hl-), a
      000319 CB 7E                  733 	bit	7, (hl)
      00031B 28 03                  734 	jr	Z, 00112$
      00031D AF                     735 	xor	a, a
      00031E 96                     736 	sub	a, (hl)
      00031F 77                     737 	ld	(hl), a
      000320                        738 00112$:
                                    739 ;D:\Business\LaroldsJubilantJunkyard\game-remakes\space-invaders\source\main\default\States\Gameplay\invaders.c:110: if(yd<0)yd=-yd;
      000320 F8 08                  740 	ldhl	sp,	#8
      000322 CB 7E                  741 	bit	7, (hl)
      000324 28 03                  742 	jr	Z, 00114$
      000326 AF                     743 	xor	a, a
      000327 96                     744 	sub	a, (hl)
      000328 77                     745 	ld	(hl), a
      000329                        746 00114$:
                                    747 ;D:\Business\LaroldsJubilantJunkyard\game-remakes\space-invaders\source\main\default\States\Gameplay\invaders.c:112: if(xd<5&&yd<8){
      000329 F8 07                  748 	ldhl	sp,	#7
      00032B 7E                     749 	ld	a, (hl)
      00032C EE 80                  750 	xor	a, #0x80
      00032E D6 85                  751 	sub	a, #0x85
      000330 30 1B                  752 	jr	NC, 00121$
      000332 23                     753 	inc	hl
      000333 7E                     754 	ld	a, (hl)
      000334 EE 80                  755 	xor	a, #0x80
      000336 D6 88                  756 	sub	a, #0x88
      000338 30 13                  757 	jr	NC, 00121$
                                    758 ;D:\Business\LaroldsJubilantJunkyard\game-remakes\space-invaders\source\main\default\States\Gameplay\invaders.c:114: IncreaseScore(10);
      00033A C5                     759 	push	bc
      00033B 3E 0A                  760 	ld	a, #0x0a
      00033D F5                     761 	push	af
      00033E 33                     762 	inc	sp
      00033F CDr00r00               763 	call	_IncreaseScore
      000342 33                     764 	inc	sp
      000343 C1                     765 	pop	bc
                                    766 ;D:\Business\LaroldsJubilantJunkyard\game-remakes\space-invaders\source\main\default\States\Gameplay\invaders.c:117: invaders[i].active=0;
      000344 03                     767 	inc	bc
      000345 03                     768 	inc	bc
      000346 AF                     769 	xor	a, a
      000347 02                     770 	ld	(bc), a
                                    771 ;D:\Business\LaroldsJubilantJunkyard\game-remakes\space-invaders\source\main\default\States\Gameplay\invaders.c:120: PlayerBulletSprite.tile=0;
      000348 21r0Ar00               772 	ld	hl, #(_shadow_OAM + 10)
      00034B 36 00                  773 	ld	(hl), #0x00
      00034D                        774 00121$:
                                    775 ;D:\Business\LaroldsJubilantJunkyard\game-remakes\space-invaders\source\main\default\States\Gameplay\invaders.c:82: if(invaders[i].active==1){
      00034D F8 09                  776 	ldhl	sp,	#9
      00034F 4E                     777 	ld	c, (hl)
      000350 06 00                  778 	ld	b, #0x00
      000352 69                     779 	ld	l, c
      000353 60                     780 	ld	h, b
      000354 29                     781 	add	hl, hl
      000355 29                     782 	add	hl, hl
      000356 09                     783 	add	hl, bc
                                    784 ;D:\Business\LaroldsJubilantJunkyard\game-remakes\space-invaders\source\main\default\States\Gameplay\invaders.c:126: if(invaders[i].active==0){
      000357 01r00r00               785 	ld	bc,#_invaders
      00035A 09                     786 	add	hl,bc
      00035B E5                     787 	push	hl
      00035C 7D                     788 	ld	a, l
      00035D F8 05                  789 	ldhl	sp,	#5
      00035F 77                     790 	ld	(hl), a
      000360 E1                     791 	pop	hl
      000361 7C                     792 	ld	a, h
      000362 F8 04                  793 	ldhl	sp,	#4
      000364 32                     794 	ld	(hl-), a
      000365 2A                     795 	ld	a, (hl+)
      000366 4F                     796 	ld	c, a
                                    797 ;D:\Business\LaroldsJubilantJunkyard\game-remakes\space-invaders\source\main\default\States\Gameplay\invaders.c:129: set_bkg_tile_xy(invaders[i].column,invaders[i].row,0);
      000367 3A                     798 	ld	a, (hl-)
      000368 47                     799 	ld	b, a
      000369 03                     800 	inc	bc
      00036A 03                     801 	inc	bc
      00036B 0A                     802 	ld	a, (bc)
      00036C 5F                     803 	ld	e, a
      00036D 2A                     804 	ld	a, (hl+)
      00036E 4F                     805 	ld	c, a
                                    806 ;D:\Business\LaroldsJubilantJunkyard\game-remakes\space-invaders\source\main\default\States\Gameplay\invaders.c:132: }else if(invaders[i].slide==0){
      00036F 3A                     807 	ld	a, (hl-)
      000370 47                     808 	ld	b, a
      000371 03                     809 	inc	bc
      000372 D5                     810 	push	de
      000373 2A                     811 	ld	a, (hl+)
      000374 5F                     812 	ld	e, a
      000375 56                     813 	ld	d, (hl)
      000376 21 04 00               814 	ld	hl, #0x0004
      000379 19                     815 	add	hl, de
      00037A D1                     816 	pop	de
      00037B E5                     817 	push	hl
      00037C 7D                     818 	ld	a, l
      00037D F8 07                  819 	ldhl	sp,	#7
      00037F 77                     820 	ld	(hl), a
      000380 E1                     821 	pop	hl
      000381 7C                     822 	ld	a, h
      000382 F8 06                  823 	ldhl	sp,	#6
      000384 77                     824 	ld	(hl), a
                                    825 ;D:\Business\LaroldsJubilantJunkyard\game-remakes\space-invaders\source\main\default\States\Gameplay\invaders.c:126: if(invaders[i].active==0){
      000385 7B                     826 	ld	a, e
      000386 B7                     827 	or	a, a
      000387 20 31                  828 	jr	NZ, 00131$
                                    829 ;D:\Business\LaroldsJubilantJunkyard\game-remakes\space-invaders\source\main\default\States\Gameplay\invaders.c:129: set_bkg_tile_xy(invaders[i].column,invaders[i].row,0);
      000389 23                     830 	inc	hl
      00038A 23                     831 	inc	hl
      00038B 0A                     832 	ld	a, (bc)
      00038C 77                     833 	ld	(hl), a
      00038D F8 03                  834 	ldhl	sp,#3
      00038F 2A                     835 	ld	a, (hl+)
      000390 5F                     836 	ld	e, a
      000391 56                     837 	ld	d, (hl)
      000392 1A                     838 	ld	a, (de)
      000393 26 00                  839 	ld	h, #0x00
                                    840 ;	spillPairReg hl
                                    841 ;	spillPairReg hl
      000395 E5                     842 	push	hl
      000396 33                     843 	inc	sp
      000397 F8 09                  844 	ldhl	sp,	#9
      000399 66                     845 	ld	h, (hl)
                                    846 ;	spillPairReg hl
                                    847 ;	spillPairReg hl
      00039A E5                     848 	push	hl
      00039B 33                     849 	inc	sp
      00039C F5                     850 	push	af
      00039D 33                     851 	inc	sp
      00039E CDr00r00               852 	call	_set_bkg_tile_xy
      0003A1 E8 03                  853 	add	sp, #3
                                    854 ;D:\Business\LaroldsJubilantJunkyard\game-remakes\space-invaders\source\main\default\States\Gameplay\invaders.c:130: set_bkg_tile_xy(invaders[i].column+1,invaders[i].row,0);
      0003A3 0A                     855 	ld	a, (bc)
      0003A4 47                     856 	ld	b, a
      0003A5 F8 03                  857 	ldhl	sp,#3
      0003A7 2A                     858 	ld	a, (hl+)
      0003A8 5F                     859 	ld	e, a
      0003A9 56                     860 	ld	d, (hl)
      0003AA 1A                     861 	ld	a, (de)
      0003AB 3C                     862 	inc	a
      0003AC 26 00                  863 	ld	h, #0x00
                                    864 ;	spillPairReg hl
                                    865 ;	spillPairReg hl
      0003AE 68                     866 	ld	l, b
      0003AF E5                     867 	push	hl
      0003B0 F5                     868 	push	af
      0003B1 33                     869 	inc	sp
      0003B2 CDr00r00               870 	call	_set_bkg_tile_xy
      0003B5 E8 03                  871 	add	sp, #3
      0003B7 C3rB9r04               872 	jp	00132$
      0003BA                        873 00131$:
                                    874 ;D:\Business\LaroldsJubilantJunkyard\game-remakes\space-invaders\source\main\default\States\Gameplay\invaders.c:132: }else if(invaders[i].slide==0){
      0003BA F8 05                  875 	ldhl	sp,#5
      0003BC 2A                     876 	ld	a, (hl+)
      0003BD 5F                     877 	ld	e, a
      0003BE 56                     878 	ld	d, (hl)
      0003BF 1A                     879 	ld	a, (de)
                                    880 ;	spillPairReg hl
                                    881 ;	spillPairReg hl
      0003C0 6F                     882 	ld	l, a
      0003C1 B7                     883 	or	a, a
      0003C2 20 38                  884 	jr	NZ, 00128$
                                    885 ;D:\Business\LaroldsJubilantJunkyard\game-remakes\space-invaders\source\main\default\States\Gameplay\invaders.c:135: set_bkg_tile_xy(invaders[i].column,invaders[i].row,tiles[4]);
      0003C4 FArD7r00               886 	ld	a, (#(_tiles + 4) + 0)
      0003C7 F8 07                  887 	ldhl	sp,	#7
      0003C9 77                     888 	ld	(hl), a
      0003CA 0A                     889 	ld	a, (bc)
      0003CB F8 08                  890 	ldhl	sp,	#8
      0003CD 77                     891 	ld	(hl), a
      0003CE F8 03                  892 	ldhl	sp,#3
      0003D0 2A                     893 	ld	a, (hl+)
      0003D1 5F                     894 	ld	e, a
      0003D2 56                     895 	ld	d, (hl)
      0003D3 1A                     896 	ld	a, (de)
      0003D4 F8 07                  897 	ldhl	sp,	#7
      0003D6 66                     898 	ld	h, (hl)
                                    899 ;	spillPairReg hl
                                    900 ;	spillPairReg hl
      0003D7 E5                     901 	push	hl
      0003D8 33                     902 	inc	sp
      0003D9 F8 09                  903 	ldhl	sp,	#9
      0003DB 66                     904 	ld	h, (hl)
                                    905 ;	spillPairReg hl
                                    906 ;	spillPairReg hl
      0003DC E5                     907 	push	hl
      0003DD 33                     908 	inc	sp
      0003DE F5                     909 	push	af
      0003DF 33                     910 	inc	sp
      0003E0 CDr00r00               911 	call	_set_bkg_tile_xy
      0003E3 E8 03                  912 	add	sp, #3
                                    913 ;D:\Business\LaroldsJubilantJunkyard\game-remakes\space-invaders\source\main\default\States\Gameplay\invaders.c:136: set_bkg_tile_xy(invaders[i].column+1,invaders[i].row,0);
      0003E5 0A                     914 	ld	a, (bc)
      0003E6 47                     915 	ld	b, a
      0003E7 F8 03                  916 	ldhl	sp,#3
      0003E9 2A                     917 	ld	a, (hl+)
      0003EA 5F                     918 	ld	e, a
      0003EB 56                     919 	ld	d, (hl)
      0003EC 1A                     920 	ld	a, (de)
      0003ED 3C                     921 	inc	a
      0003EE 26 00                  922 	ld	h, #0x00
                                    923 ;	spillPairReg hl
                                    924 ;	spillPairReg hl
      0003F0 68                     925 	ld	l, b
      0003F1 E5                     926 	push	hl
      0003F2 F5                     927 	push	af
      0003F3 33                     928 	inc	sp
      0003F4 CDr00r00               929 	call	_set_bkg_tile_xy
      0003F7 E8 03                  930 	add	sp, #3
      0003F9 C3rB9r04               931 	jp	00132$
      0003FC                        932 00128$:
                                    933 ;D:\Business\LaroldsJubilantJunkyard\game-remakes\space-invaders\source\main\default\States\Gameplay\invaders.c:138: }else if(invaders[i].slide>0){
      0003FC 5D                     934 	ld	e, l
      0003FD AF                     935 	xor	a, a
      0003FE 57                     936 	ld	d, a
      0003FF 95                     937 	sub	a, l
      000400 CB 7B                  938 	bit	7, e
      000402 28 07                  939 	jr	Z, 00316$
      000404 CB 7A                  940 	bit	7, d
      000406 20 08                  941 	jr	NZ, 00317$
      000408 BF                     942 	cp	a, a
      000409 18 05                  943 	jr	00317$
      00040B                        944 00316$:
      00040B CB 7A                  945 	bit	7, d
      00040D 28 01                  946 	jr	Z, 00317$
      00040F 37                     947 	scf
      000410                        948 00317$:
      000410 30 55                  949 	jr	NC, 00125$
                                    950 ;D:\Business\LaroldsJubilantJunkyard\game-remakes\space-invaders\source\main\default\States\Gameplay\invaders.c:141: set_bkg_tile_xy(invaders[i].column,invaders[i].row,tiles[4-invaders[i].slide]);
      000412 3E 04                  951 	ld	a, #0x04
      000414 95                     952 	sub	a, l
      000415 5F                     953 	ld	e, a
      000416 07                     954 	rlca
      000417 9F                     955 	sbc	a, a
      000418 57                     956 	ld	d, a
      000419 21rD3r00               957 	ld	hl, #_tiles
      00041C 19                     958 	add	hl, de
      00041D 7E                     959 	ld	a, (hl)
      00041E F8 07                  960 	ldhl	sp,	#7
      000420 77                     961 	ld	(hl), a
      000421 0A                     962 	ld	a, (bc)
      000422 F8 08                  963 	ldhl	sp,	#8
      000424 77                     964 	ld	(hl), a
      000425 F8 03                  965 	ldhl	sp,#3
      000427 2A                     966 	ld	a, (hl+)
      000428 5F                     967 	ld	e, a
      000429 56                     968 	ld	d, (hl)
      00042A 1A                     969 	ld	a, (de)
      00042B F8 07                  970 	ldhl	sp,	#7
      00042D 66                     971 	ld	h, (hl)
                                    972 ;	spillPairReg hl
                                    973 ;	spillPairReg hl
      00042E E5                     974 	push	hl
      00042F 33                     975 	inc	sp
      000430 F8 09                  976 	ldhl	sp,	#9
      000432 66                     977 	ld	h, (hl)
                                    978 ;	spillPairReg hl
                                    979 ;	spillPairReg hl
      000433 E5                     980 	push	hl
      000434 33                     981 	inc	sp
      000435 F5                     982 	push	af
      000436 33                     983 	inc	sp
      000437 CDr00r00               984 	call	_set_bkg_tile_xy
      00043A E8 03                  985 	add	sp, #3
                                    986 ;D:\Business\LaroldsJubilantJunkyard\game-remakes\space-invaders\source\main\default\States\Gameplay\invaders.c:142: set_bkg_tile_xy(invaders[i].column+1,invaders[i].row,tiles[8-invaders[i].slide]);
      00043C F8 05                  987 	ldhl	sp,#5
      00043E 2A                     988 	ld	a, (hl+)
      00043F 5F                     989 	ld	e, a
      000440 56                     990 	ld	d, (hl)
      000441 1A                     991 	ld	a, (de)
      000442 6F                     992 	ld	l, a
                                    993 ;	spillPairReg hl
                                    994 ;	spillPairReg hl
      000443 3E 08                  995 	ld	a, #0x08
      000445 95                     996 	sub	a, l
      000446 5F                     997 	ld	e, a
      000447 07                     998 	rlca
      000448 9F                     999 	sbc	a, a
      000449 57                    1000 	ld	d, a
      00044A 21rD3r00              1001 	ld	hl, #_tiles
      00044D 19                    1002 	add	hl, de
      00044E 7E                    1003 	ld	a, (hl)
      00044F F5                    1004 	push	af
      000450 0A                    1005 	ld	a, (bc)
      000451 47                    1006 	ld	b, a
      000452 F1                    1007 	pop	af
      000453 F8 03                 1008 	ldhl	sp,#3
      000455 5E                    1009 	ld	e, (hl)
      000456 23                    1010 	inc	hl
      000457 56                    1011 	ld	d, (hl)
      000458 F5                    1012 	push	af
      000459 1A                    1013 	ld	a, (de)
      00045A 4F                    1014 	ld	c, a
      00045B F1                    1015 	pop	af
      00045C 0C                    1016 	inc	c
      00045D F5                    1017 	push	af
      00045E 33                    1018 	inc	sp
      00045F C5                    1019 	push	bc
      000460 CDr00r00              1020 	call	_set_bkg_tile_xy
      000463 E8 03                 1021 	add	sp, #3
      000465 18 52                 1022 	jr	00132$
      000467                       1023 00125$:
                                   1024 ;D:\Business\LaroldsJubilantJunkyard\game-remakes\space-invaders\source\main\default\States\Gameplay\invaders.c:144: }else if(invaders[i].slide<0){
      000467 CB 7D                 1025 	bit	7, l
      000469 28 4E                 1026 	jr	Z, 00132$
                                   1027 ;D:\Business\LaroldsJubilantJunkyard\game-remakes\space-invaders\source\main\default\States\Gameplay\invaders.c:146: set_bkg_tile_xy(invaders[i].column-1,invaders[i].row,tiles[-invaders[i].slide]);
      00046B AF                    1028 	xor	a, a
      00046C 95                    1029 	sub	a, l
      00046D 5F                    1030 	ld	e, a
      00046E 07                    1031 	rlca
      00046F 9F                    1032 	sbc	a, a
      000470 57                    1033 	ld	d, a
      000471 21rD3r00              1034 	ld	hl, #_tiles
      000474 19                    1035 	add	hl, de
      000475 7E                    1036 	ld	a, (hl)
      000476 F8 08                 1037 	ldhl	sp,	#8
      000478 77                    1038 	ld	(hl), a
      000479 0A                    1039 	ld	a, (bc)
      00047A F8 03                 1040 	ldhl	sp,#3
      00047C 5E                    1041 	ld	e, (hl)
      00047D 23                    1042 	inc	hl
      00047E 56                    1043 	ld	d, (hl)
      00047F F5                    1044 	push	af
      000480 1A                    1045 	ld	a, (de)
      000481 6F                    1046 	ld	l, a
                                   1047 ;	spillPairReg hl
                                   1048 ;	spillPairReg hl
      000482 F1                    1049 	pop	af
      000483 55                    1050 	ld	d, l
      000484 15                    1051 	dec	d
      000485 F8 08                 1052 	ldhl	sp,	#8
      000487 66                    1053 	ld	h, (hl)
                                   1054 ;	spillPairReg hl
                                   1055 ;	spillPairReg hl
      000488 E5                    1056 	push	hl
      000489 33                    1057 	inc	sp
      00048A F5                    1058 	push	af
      00048B 33                    1059 	inc	sp
      00048C D5                    1060 	push	de
      00048D 33                    1061 	inc	sp
      00048E CDr00r00              1062 	call	_set_bkg_tile_xy
      000491 E8 03                 1063 	add	sp, #3
                                   1064 ;D:\Business\LaroldsJubilantJunkyard\game-remakes\space-invaders\source\main\default\States\Gameplay\invaders.c:147: set_bkg_tile_xy(invaders[i].column,invaders[i].row,tiles[4-invaders[i].slide]);
      000493 F8 05                 1065 	ldhl	sp,#5
      000495 2A                    1066 	ld	a, (hl+)
      000496 5F                    1067 	ld	e, a
      000497 56                    1068 	ld	d, (hl)
      000498 1A                    1069 	ld	a, (de)
      000499 6F                    1070 	ld	l, a
                                   1071 ;	spillPairReg hl
                                   1072 ;	spillPairReg hl
      00049A 3E 04                 1073 	ld	a, #0x04
      00049C 95                    1074 	sub	a, l
      00049D 5F                    1075 	ld	e, a
      00049E 07                    1076 	rlca
      00049F 9F                    1077 	sbc	a, a
      0004A0 57                    1078 	ld	d, a
      0004A1 21rD3r00              1079 	ld	hl, #_tiles
      0004A4 19                    1080 	add	hl, de
      0004A5 7E                    1081 	ld	a, (hl)
      0004A6 F5                    1082 	push	af
      0004A7 0A                    1083 	ld	a, (bc)
      0004A8 47                    1084 	ld	b, a
      0004A9 F1                    1085 	pop	af
      0004AA F8 03                 1086 	ldhl	sp,#3
      0004AC 5E                    1087 	ld	e, (hl)
      0004AD 23                    1088 	inc	hl
      0004AE 56                    1089 	ld	d, (hl)
      0004AF F5                    1090 	push	af
      0004B0 1A                    1091 	ld	a, (de)
                                   1092 ;	spillPairReg hl
                                   1093 ;	spillPairReg hl
      0004B1 4F                    1094 	ld	c, a
      0004B2 33                    1095 	inc	sp
      0004B3 C5                    1096 	push	bc
      0004B4 CDr00r00              1097 	call	_set_bkg_tile_xy
      0004B7 E8 03                 1098 	add	sp, #3
      0004B9                       1099 00132$:
                                   1100 ;D:\Business\LaroldsJubilantJunkyard\game-remakes\space-invaders\source\main\default\States\Gameplay\invaders.c:150: if(invaderCounter>4-topRow/2||topRow>9){
      0004B9 21rCAr00              1101 	ld	hl, #_topRow
      0004BC 6E                    1102 	ld	l, (hl)
                                   1103 ;	spillPairReg hl
                                   1104 ;	spillPairReg hl
      0004BD 26 00                 1105 	ld	h, #0x00
                                   1106 ;	spillPairReg hl
                                   1107 ;	spillPairReg hl
      0004BF 4D                    1108 	ld	c, l
      0004C0 44                    1109 	ld	b, h
      0004C1 CB 7C                 1110 	bit	7, h
      0004C3 28 03                 1111 	jr	Z, 00161$
      0004C5 23                    1112 	inc	hl
      0004C6 4D                    1113 	ld	c, l
      0004C7 44                    1114 	ld	b, h
      0004C8                       1115 00161$:
      0004C8 CB 28                 1116 	sra	b
      0004CA CB 19                 1117 	rr	c
      0004CC 3E 04                 1118 	ld	a, #0x04
      0004CE 91                    1119 	sub	a, c
      0004CF 4F                    1120 	ld	c, a
      0004D0 9F                    1121 	sbc	a, a
      0004D1 90                    1122 	sub	a, b
      0004D2 47                    1123 	ld	b, a
      0004D3 21rC9r00              1124 	ld	hl, #_invaderCounter
      0004D6 6E                    1125 	ld	l, (hl)
                                   1126 ;	spillPairReg hl
                                   1127 ;	spillPairReg hl
      0004D7 26 00                 1128 	ld	h, #0x00
                                   1129 ;	spillPairReg hl
                                   1130 ;	spillPairReg hl
      0004D9 5C                    1131 	ld	e, h
      0004DA 50                    1132 	ld	d, b
      0004DB 79                    1133 	ld	a, c
      0004DC 95                    1134 	sub	a, l
      0004DD 78                    1135 	ld	a, b
      0004DE 9C                    1136 	sbc	a, h
      0004DF CB 7B                 1137 	bit	7, e
      0004E1 28 07                 1138 	jr	Z, 00318$
      0004E3 CB 7A                 1139 	bit	7, d
      0004E5 20 08                 1140 	jr	NZ, 00319$
      0004E7 BF                    1141 	cp	a, a
      0004E8 18 05                 1142 	jr	00319$
      0004EA                       1143 00318$:
      0004EA CB 7A                 1144 	bit	7, d
      0004EC 28 01                 1145 	jr	Z, 00319$
      0004EE 37                    1146 	scf
      0004EF                       1147 00319$:
      0004EF 38 08                 1148 	jr	C, 00139$
      0004F1 3E 09                 1149 	ld	a, #0x09
      0004F3 21rCAr00              1150 	ld	hl, #_topRow
      0004F6 96                    1151 	sub	a, (hl)
      0004F7 30 61                 1152 	jr	NC, 00153$
      0004F9                       1153 00139$:
                                   1154 ;D:\Business\LaroldsJubilantJunkyard\game-remakes\space-invaders\source\main\default\States\Gameplay\invaders.c:152: invaders[i].slide+=slideDir;
      0004F9 F8 05                 1155 	ldhl	sp,#5
      0004FB 2A                    1156 	ld	a, (hl+)
      0004FC 5F                    1157 	ld	e, a
      0004FD 56                    1158 	ld	d, (hl)
      0004FE 1A                    1159 	ld	a, (de)
      0004FF 21r00r00              1160 	ld	hl, #_slideDir
      000502 4E                    1161 	ld	c, (hl)
      000503 81                    1162 	add	a, c
      000504 47                    1163 	ld	b, a
      000505 F8 05                 1164 	ldhl	sp,	#5
      000507 2A                    1165 	ld	a,	(hl+)
      000508 66                    1166 	ld	h, (hl)
      000509 6F                    1167 	ld	l, a
      00050A 70                    1168 	ld	(hl), b
                                   1169 ;D:\Business\LaroldsJubilantJunkyard\game-remakes\space-invaders\source\main\default\States\Gameplay\invaders.c:154: if(invaders[i].slide>4||invaders[i].slide<-4){
      00050B F8 05                 1170 	ldhl	sp,#5
      00050D 2A                    1171 	ld	a, (hl+)
      00050E 5F                    1172 	ld	e, a
      00050F 56                    1173 	ld	d, (hl)
      000510 1A                    1174 	ld	a, (de)
      000511 4F                    1175 	ld	c, a
      000512 58                    1176 	ld	e, b
      000513 3E 04                 1177 	ld	a,#0x04
      000515 57                    1178 	ld	d,a
      000516 90                    1179 	sub	a, b
      000517 CB 7B                 1180 	bit	7, e
      000519 28 07                 1181 	jr	Z, 00320$
      00051B CB 7A                 1182 	bit	7, d
      00051D 20 08                 1183 	jr	NZ, 00321$
      00051F BF                    1184 	cp	a, a
      000520 18 05                 1185 	jr	00321$
      000522                       1186 00320$:
      000522 CB 7A                 1187 	bit	7, d
      000524 28 01                 1188 	jr	Z, 00321$
      000526 37                    1189 	scf
      000527                       1190 00321$:
      000527 38 07                 1191 	jr	C, 00136$
      000529 79                    1192 	ld	a, c
      00052A EE 80                 1193 	xor	a, #0x80
      00052C D6 7C                 1194 	sub	a, #0x7c
      00052E 30 2A                 1195 	jr	NC, 00153$
      000530                       1196 00136$:
                                   1197 ;D:\Business\LaroldsJubilantJunkyard\game-remakes\space-invaders\source\main\default\States\Gameplay\invaders.c:155: invaders[i].slide=0;
      000530 F8 05                 1198 	ldhl	sp,	#5
      000532 2A                    1199 	ld	a,	(hl+)
      000533 66                    1200 	ld	h, (hl)
      000534 6F                    1201 	ld	l, a
      000535 36 00                 1202 	ld	(hl), #0x00
                                   1203 ;D:\Business\LaroldsJubilantJunkyard\game-remakes\space-invaders\source\main\default\States\Gameplay\invaders.c:156: invaders[i].column+=slideDir;
      000537 F8 03                 1204 	ldhl	sp,#3
      000539 2A                    1205 	ld	a, (hl+)
      00053A 5F                    1206 	ld	e, a
      00053B 56                    1207 	ld	d, (hl)
      00053C 1A                    1208 	ld	a, (de)
      00053D 21r00r00              1209 	ld	hl, #_slideDir
      000540 86                    1210 	add	a, (hl)
      000541 4F                    1211 	ld	c, a
      000542 F8 03                 1212 	ldhl	sp,	#3
      000544 2A                    1213 	ld	a,	(hl+)
      000545 66                    1214 	ld	h, (hl)
      000546 6F                    1215 	ld	l, a
      000547 71                    1216 	ld	(hl), c
                                   1217 ;D:\Business\LaroldsJubilantJunkyard\game-remakes\space-invaders\source\main\default\States\Gameplay\invaders.c:157: if((invaders[i].column==0)||(invaders[i].column==19)){
      000548 F8 03                 1218 	ldhl	sp,#3
      00054A 2A                    1219 	ld	a, (hl+)
      00054B 5F                    1220 	ld	e, a
      00054C 56                    1221 	ld	d, (hl)
      00054D 1A                    1222 	ld	a, (de)
      00054E 0C                    1223 	inc	c
      00054F 0D                    1224 	dec	c
      000550 28 04                 1225 	jr	Z, 00133$
      000552 D6 13                 1226 	sub	a, #0x13
      000554 20 04                 1227 	jr	NZ, 00153$
      000556                       1228 00133$:
                                   1229 ;D:\Business\LaroldsJubilantJunkyard\game-remakes\space-invaders\source\main\default\States\Gameplay\invaders.c:158: anyInvaderHasReachedEndOfScreen=1;
      000556 F8 02                 1230 	ldhl	sp,	#2
      000558 36 01                 1231 	ld	(hl), #0x01
      00055A                       1232 00153$:
                                   1233 ;D:\Business\LaroldsJubilantJunkyard\game-remakes\space-invaders\source\main\default\States\Gameplay\invaders.c:78: for(UINT8 i=0;i<40;i++){
      00055A F8 09                 1234 	ldhl	sp,	#9
      00055C 34                    1235 	inc	(hl)
      00055D C3r0Dr02              1236 	jp	00152$
      000560                       1237 00142$:
                                   1238 ;D:\Business\LaroldsJubilantJunkyard\game-remakes\space-invaders\source\main\default\States\Gameplay\invaders.c:168: if(invaderCounter>4-topRow/2||topRow>9){
      000560 21rCAr00              1239 	ld	hl, #_topRow
      000563 4E                    1240 	ld	c, (hl)
      000564 06 00                 1241 	ld	b, #0x00
      000566 69                    1242 	ld	l, c
                                   1243 ;	spillPairReg hl
                                   1244 ;	spillPairReg hl
      000567 60                    1245 	ld	h, b
                                   1246 ;	spillPairReg hl
                                   1247 ;	spillPairReg hl
      000568 CB 78                 1248 	bit	7, b
      00056A 28 03                 1249 	jr	Z, 00162$
      00056C 69                    1250 	ld	l, c
                                   1251 ;	spillPairReg hl
                                   1252 ;	spillPairReg hl
      00056D 60                    1253 	ld	h, b
                                   1254 ;	spillPairReg hl
                                   1255 ;	spillPairReg hl
      00056E 23                    1256 	inc	hl
      00056F                       1257 00162$:
      00056F CB 2C                 1258 	sra	h
      000571 CB 1D                 1259 	rr	l
      000573 3E 04                 1260 	ld	a, #0x04
      000575 95                    1261 	sub	a, l
      000576 4F                    1262 	ld	c, a
      000577 9F                    1263 	sbc	a, a
      000578 94                    1264 	sub	a, h
      000579 47                    1265 	ld	b, a
      00057A 21rC9r00              1266 	ld	hl, #_invaderCounter
      00057D 6E                    1267 	ld	l, (hl)
                                   1268 ;	spillPairReg hl
                                   1269 ;	spillPairReg hl
      00057E 26 00                 1270 	ld	h, #0x00
                                   1271 ;	spillPairReg hl
                                   1272 ;	spillPairReg hl
      000580 5C                    1273 	ld	e, h
      000581 50                    1274 	ld	d, b
      000582 79                    1275 	ld	a, c
      000583 95                    1276 	sub	a, l
      000584 78                    1277 	ld	a, b
      000585 9C                    1278 	sbc	a, h
      000586 CB 7B                 1279 	bit	7, e
      000588 28 07                 1280 	jr	Z, 00324$
      00058A CB 7A                 1281 	bit	7, d
      00058C 20 08                 1282 	jr	NZ, 00325$
      00058E BF                    1283 	cp	a, a
      00058F 18 05                 1284 	jr	00325$
      000591                       1285 00324$:
      000591 CB 7A                 1286 	bit	7, d
      000593 28 01                 1287 	jr	Z, 00325$
      000595 37                    1288 	scf
      000596                       1289 00325$:
      000596 38 08                 1290 	jr	C, 00143$
      000598 3E 09                 1291 	ld	a, #0x09
      00059A 21rCAr00              1292 	ld	hl, #_topRow
      00059D 96                    1293 	sub	a, (hl)
      00059E 30 05                 1294 	jr	NC, 00144$
      0005A0                       1295 00143$:
                                   1296 ;D:\Business\LaroldsJubilantJunkyard\game-remakes\space-invaders\source\main\default\States\Gameplay\invaders.c:169: invaderCounter=0;
      0005A0 21rC9r00              1297 	ld	hl, #_invaderCounter
      0005A3 36 00                 1298 	ld	(hl), #0x00
      0005A5                       1299 00144$:
                                   1300 ;D:\Business\LaroldsJubilantJunkyard\game-remakes\space-invaders\source\main\default\States\Gameplay\invaders.c:175: if(anyInvaderHasReachedEndOfScreen){
      0005A5 F8 02                 1301 	ldhl	sp,	#2
      0005A7 7E                    1302 	ld	a, (hl)
      0005A8 B7                    1303 	or	a, a
      0005A9 28 37                 1304 	jr	Z, 00157$
                                   1305 ;D:\Business\LaroldsJubilantJunkyard\game-remakes\space-invaders\source\main\default\States\Gameplay\invaders.c:178: for(UINT8 i=0;i<40;i++){invaders[i].row++;}
      0005AB 0E 00                 1306 	ld	c, #0x00
      0005AD                       1307 00155$:
      0005AD 79                    1308 	ld	a, c
      0005AE D6 28                 1309 	sub	a, #0x28
      0005B0 30 11                 1310 	jr	NC, 00146$
      0005B2 06 00                 1311 	ld	b, #0x00
      0005B4 69                    1312 	ld	l, c
      0005B5 60                    1313 	ld	h, b
      0005B6 29                    1314 	add	hl, hl
      0005B7 29                    1315 	add	hl, hl
      0005B8 09                    1316 	add	hl, bc
      0005B9 11r00r00              1317 	ld	de, #_invaders
      0005BC 19                    1318 	add	hl, de
      0005BD 23                    1319 	inc	hl
      0005BE 34                    1320 	inc	(hl)
      0005BF 7E                    1321 	ld	a, (hl)
      0005C0 0C                    1322 	inc	c
      0005C1 18 EA                 1323 	jr	00155$
      0005C3                       1324 00146$:
                                   1325 ;D:\Business\LaroldsJubilantJunkyard\game-remakes\space-invaders\source\main\default\States\Gameplay\invaders.c:181: slideDir=-slideDir;
      0005C3 AF                    1326 	xor	a, a
      0005C4 21r00r00              1327 	ld	hl, #_slideDir
      0005C7 96                    1328 	sub	a, (hl)
      0005C8 77                    1329 	ld	(hl), a
                                   1330 ;D:\Business\LaroldsJubilantJunkyard\game-remakes\space-invaders\source\main\default\States\Gameplay\invaders.c:183: fill_bkg_rect(0,topRow,20,1,0);
      0005C9 AF                    1331 	xor	a, a
      0005CA 67                    1332 	ld	h, a
      0005CB 2E 01                 1333 	ld	l, #0x01
      0005CD E5                    1334 	push	hl
      0005CE 3E 14                 1335 	ld	a, #0x14
      0005D0 F5                    1336 	push	af
      0005D1 33                    1337 	inc	sp
      0005D2 FArCAr00              1338 	ld	a, (#_topRow)
      0005D5 67                    1339 	ld	h, a
      0005D6 2E 00                 1340 	ld	l, #0x00
      0005D8 E5                    1341 	push	hl
      0005D9 CDr00r00              1342 	call	_fill_bkg_rect
      0005DC E8 05                 1343 	add	sp, #5
                                   1344 ;D:\Business\LaroldsJubilantJunkyard\game-remakes\space-invaders\source\main\default\States\Gameplay\invaders.c:186: topRow++;
      0005DE 21rCAr00              1345 	ld	hl, #_topRow
      0005E1 34                    1346 	inc	(hl)
      0005E2                       1347 00157$:
                                   1348 ;D:\Business\LaroldsJubilantJunkyard\game-remakes\space-invaders\source\main\default\States\Gameplay\invaders.c:188: }
      0005E2 E8 0A                 1349 	add	sp, #10
      0005E4 C9                    1350 	ret
                                   1351 	.area _CODE
                                   1352 	.area _INITIALIZER
                                   1353 	.area _CABS (ABS)
