ASxxxx Linker V03.00 + NoICE + sdld,  page 1.
Hexadecimal  [32-Bits]

Area                       Addr        Size        Decimal Bytes (Attributes)
--------------------       ----        ----        ------- ----- ------------
.  .ABS.               00000000    00000000 =           0. bytes (ABS,CON)

        Value  Global            Value  Global            Value  Global    
        -----  ------            -----  ------            -----  ------    
     00000000  .__.ABS.  |    00000000  ___bank_A |    00000000  ___bank_B
     00000000  ___bank_B |    00000000  ___bank_B |    00000000  ___bank_B
     00000000  ___bank_E |    00000000  ___bank_I |    00000000  ___bank_I
     00000000  ___bank_I |    00000000  ___bank_P |    00000000  ___bank_S
     00000000  ___bank_S |    00000000  _rRAMG    |    00000000  l__BASE  
     00000000  l__BSS    |    00000000  l__CABS   |    00000000  l__CODE_0
     00000000  l__DABS   |    00000000  l__HEADER |    00000000  l__HEAP  
     00000000  l__HRAM   |    00000000  l__LIT    |    00000000  s__CABS  
     00000000  s__DABS   |    00000000  s__HEADER |    00000000  s__HEADER
     00000000  s__HEADER |    00000000  s__HEADER |    00000000  s__HEADER
     00000000  s__HEADER |    00000000  s__HEADER |    00000000  s__HEADER
     00000000  s__HEADER |    00000000  s__HEADER |    00000000  s__HEADER
     00000000  s__HEADER |    00000000  s__HEADER |    00000000  s__HEADER
     00000000  s__HEADER |    00000000  s__HEADER |    00000000  s__HEADER
     00000000  s__HEADER |    00000000  s__HEADER |    00000000  s__HRAM  
     00000000  s__HRAM12 |    00000001  l__GSFINA |    00000001  l__HEADER
     00000001  l__HEADER |    00000001  l__HEADER |    00000001  l__HEADER
     00000001  l__HEADER |    00000001  l__HEADER |    00000001  l__HEADER
     00000002  l__HEADER |    00000002  l__HEADER |    00000002  l__HEADER
     00000003  l__HEADER |    00000003  l__HRAM12 |    00000005  l__HEADER
     00000006  l__HEADER |    00000007  l__HEADER |    00000008  l__HEADER
     0000000B  l__INITIA |    0000000B  l__INITIA |    0000000C  l__GSINIT
     00000030  l__HEADER |    0000004E  l__HEADER |    00000082  l__HEADER
     000000F3  l__DATA   |    00000200  s__CODE   |    0000033B  l__HOME  
     00002000  _rROMB0   |    00002630  l__CODE   |    00002830  s__HOME  
     00002B6B  s__BASE   |    00002B6B  s__CODE_0 |    00002B6B  s__INITIA
     00002B6B  s__LIT    |    00002B76  s__GSINIT |    00002B82  s__GSFINA
     00003000  _rROMB1   |    00004000  _rRAMB    |    00008000  __VRAM   
     00008000  __VRAM800 |    00008800  __VRAM880 |    00009000  __VRAM900
     00009800  __SCRN0   |    00009C00  __SCRN1   |    0000A000  __SRAM   
     0000C000  __RAM     |    0000C000  _shadow_O |    0000C0A0  s__DATA  
     0000C193  s__BSS    |    0000C193  s__INITIA |    0000C19E  s__HEAP  
     0000D000  __RAMBANK |    0000E000  .STACK    |    0000FE00  __OAMRAM 
     0000FF00  _P1_REG   |    0000FF00  __IO      |    0000FF01  _SB_REG  
     0000FF02  _SC_REG   |    0000FF04  _DIV_REG  |    0000FF05  _TIMA_REG
     0000FF06  _TMA_REG  |    0000FF07  _TAC_REG  |    0000FF0F  _IF_REG  
     0000FF10  _NR10_REG |    0000FF11  _NR11_REG |    0000FF12  _NR12_REG
     0000FF13  _NR13_REG |    0000FF14  _NR14_REG |    0000FF16  _NR21_REG
     0000FF17  _NR22_REG |    0000FF18  _NR23_REG |    0000FF19  _NR24_REG
     0000FF1A  _NR30_REG |    0000FF1B  _NR31_REG |    0000FF1C  _NR32_REG
     0000FF1D  _NR33_REG |    0000FF1E  _NR34_REG |    0000FF20  _NR41_REG
     0000FF21  _NR42_REG |    0000FF22  _NR43_REG |    0000FF23  _NR44_REG
     0000FF24  _NR50_REG |    0000FF25  _NR51_REG |    0000FF26  _NR52_REG
     0000FF30  _PCM_SAMP |    0000FF30  __AUD3WAV |    0000FF40  _LCDC_REG
     0000FF41  _STAT_REG |    0000FF42  _SCY_REG  |    0000FF43  _SCX_REG 
     0000FF44  _LY_REG   |    0000FF45  _LYC_REG  |    0000FF46  _DMA_REG 
     0000FF47  _BGP_REG  |    0000FF48  _OBP0_REG |    0000FF49  _OBP1_REG
     0000FF4A  _WY_REG   |    0000FF4B  _WX_REG   |    0000FF4D  _KEY1_REG
     0000FF4F  _VBK_REG  |    0000FF51  _HDMA1_RE |    0000FF52  _HDMA2_RE
     0000FF53  _HDMA3_RE |    0000FF54  _HDMA4_RE |    0000FF55  _HDMA5_RE
ASxxxx Linker V03.00 + NoICE + sdld,  page 2.
Hexadecimal  [32-Bits]

Area                       Addr        Size        Decimal Bytes (Attributes)
--------------------       ----        ----        ------- ----- ------------
.  .ABS.               00000000    00000000 =           0. bytes (ABS,CON)

        Value  Global            Value  Global            Value  Global    
        -----  ------            -----  ------            -----  ------    
     0000FF56  _RP_REG   |    0000FF68  _BCPS_REG |    0000FF69  _BCPD_REG
     0000FF6A  _OCPS_REG |    0000FF6B  _OCPD_REG |    0000FF70  _SVBK_REG
     0000FF76  _PCM12_RE |    0000FF77  _PCM34_RE |    0000FF80  .refresh_
     0000FF80  __HRAM    |    0000FFFF  _IE_REG  
ASxxxx Linker V03.00 + NoICE + sdld,  page 3.
Hexadecimal  [32-Bits]

Area                       Addr        Size        Decimal Bytes (Attributes)
--------------------       ----        ----        ------- ----- ------------
_CODE                  00000200    00002630 =        9776. bytes (REL,CON)

        Value  Global            Value  Global            Value  Global    
        -----  ------            -----  ------            -----  ------    
     00000200  _SetupPla |    00000224  _UpdatePl |    00000304  _SetupInv
     0000043E  _tiles    |    00000447  _InvaderC |    000004B9  _UpdateIn
     0000063D  _SlideInv |    000006CE  _InvaderT |    00000727  _ShiftAll
     00000767  _Invaders |    000007AD  _UpdateIn |    0000088F  _SetupBul
     000008A9  _GetAvail |    000008CD  _InvaderC |    0000096A  _UpdateBu
     00000CFE  _SetupAli |    00000D1F  _UpdateAl |    00000E3B  _SetupSta
     00000EB4  _UpdateSt |    00000FA0  _SetupNex |    00000FDC  _UpdateNe
     00000FE7  _SetupMen |    00001184  _UpdateMe |    0000119D  _UpdateSc
     00001202  _Increase |    00001233  _DrawBarr |    0000131D  _SetupLev
     00001336  _SetupGam |    00001358  _UpdateGa |    00001393  _SetupGam
     000013AC  _UpdateGa |    000013B7  _GameFirs |    00001405  _main    
     000014A2  _DrawNumb |    000015A5  _DrawText |    000016E3  _GetNextA
     00001700  _ClearAll |    0000171E  _ClearBac |    00001730  _RandomNu
     00001767  _SpaceInv |    00001767  ___func_S |    0000176F  _SpaceInv
     00001CDF  _SpaceInv |    00001D36  _SpaceInv |    00001DA2  _SpaceInv
     00001DA2  ___func_S |    00001DAA  _SpaceInv |    0000205A  _SpaceInv
     00002085  _SpaceInv |    000020B9  _Player_p |    000020B9  ___func_P
     000020C1  _Player_t |    000020E1  _Player_m |    000020ED  _Player_m
     000020EF  _Invader3 |    000020EF  ___func_I |    000020F7  _Invader3
     000021F7  _Invader3 |    00002207  _Invader3 |    00002218  _Invader2
     00002218  ___func_I |    00002220  _Invader2 |    00002320  _Invader2
     00002330  _Invader2 |    00002341  _Invader1 |    00002341  ___func_I
     00002349  _Invader1 |    00002449  _Invader1 |    00002459  _Invader1
     0000246A  _Explosio |    0000246A  ___func_E |    00002472  _Explosio
     000024B2  _Explosio |    000024B6  _Explosio |    000024BE  _Explosio
     000024C6  _Explosio |    000024CE  _Explosio |    000024D6  _Explosio
     000024E0  _BulletC_ |    000024E0  ___func_B |    000024E8  _BulletC_
     000024F8  _BulletC_ |    00002500  _BulletC_ |    00002508  _BulletC_
     0000250C  _BulletB_ |    0000250C  ___func_B |    00002514  _BulletB_
     00002524  _BulletB_ |    0000252C  _BulletB_ |    00002534  _BulletB_
     0000253C  _BulletB_ |    00002544  _BulletB_ |    0000254C  _BulletB_
     00002554  _BulletB_ |    0000255C  _BulletB_ |    00002564  _BulletB_
     00002574  _BulletA_ |    00002574  ___func_B |    0000257C  _BulletA_
     000025CC  _BulletA_ |    000025D4  _BulletA_ |    000025DC  _BulletA_
     000025E4  _BulletA_ |    000025EC  _BulletA_ |    000025F4  _BulletA_
     000025FC  _BulletA_ |    00002604  _BulletA_ |    0000260C  _BulletA_
     0000261C  _Barricad |    0000261C  ___func_B |    00002624  _Barricad
     00002714  _Barricad |    00002723  _Barricad |    00002732  _Alien_pa
     00002732  ___func_A |    0000273A  _Alien_ti |    0000275A  _Alien_me
     00002766  _Alien_me |    00002768  _set_spri |    0000276D  _set_bkg_
     00002770  .set_pale |    0000278F  _set_spri |    00002794  _set_bkg_
     00002797  .set_pale |    000027B3  _get_vram |    000027C0  _get_win_
     000027C8  _get_bkg_ |    000027EF  _set_vram |    000027FE  _set_win_
     00002806  _set_bkg_
ASxxxx Linker V03.00 + NoICE + sdld,  page 4.
Hexadecimal  [32-Bits]

Area                       Addr        Size        Decimal Bytes (Attributes)
--------------------       ----        ----        ------- ----- ------------
_HEADER0               00000000    00000001 =           1. bytes (ABS,CON)

        Value  Global            Value  Global            Value  Global    
        -----  ------            -----  ------            -----  ------    
     00000020  .call_hl 
ASxxxx Linker V03.00 + NoICE + sdld,  page 5.
Hexadecimal  [32-Bits]

Area                       Addr        Size        Decimal Bytes (Attributes)
--------------------       ----        ----        ------- ----- ------------
_HEADER1               00000000    00000005 =           5. bytes (ABS,CON)

        Value  Global            Value  Global            Value  Global    
        -----  ------            -----  ------            -----  ------    
     00000028  .MemsetSm
ASxxxx Linker V03.00 + NoICE + sdld,  page 6.
Hexadecimal  [32-Bits]

Area                       Addr        Size        Decimal Bytes (Attributes)
--------------------       ----        ----        ------- ----- ------------
_HEADER2               00000000    00000007 =           7. bytes (ABS,CON)

        Value  Global            Value  Global            Value  Global    
        -----  ------            -----  ------            -----  ------    
     00000030  .MemcpySm
ASxxxx Linker V03.00 + NoICE + sdld,  page 7.
Hexadecimal  [32-Bits]

Area                       Addr        Size        Decimal Bytes (Attributes)
--------------------       ----        ----        ------- ----- ------------
_HEADER3               00000000    00000008 =           8. bytes (ABS,CON)

        Value  Global            Value  Global            Value  Global    
        -----  ------            -----  ------            -----  ------    
ASxxxx Linker V03.00 + NoICE + sdld,  page 8.
Hexadecimal  [32-Bits]

Area                       Addr        Size        Decimal Bytes (Attributes)
--------------------       ----        ----        ------- ----- ------------
_HEADER4               00000000    0000004E =          78. bytes (ABS,CON)

        Value  Global            Value  Global            Value  Global    
        -----  ------            -----  ------            -----  ------    
     00000080  .int      |    0000008F  _wait_int |    0000009C  __standar
     000000AC  _refresh_
ASxxxx Linker V03.00 + NoICE + sdld,  page 9.
Hexadecimal  [32-Bits]

Area                       Addr        Size        Decimal Bytes (Attributes)
--------------------       ----        ----        ------- ----- ------------
_HEADER5               00000000    00000002 =           2. bytes (ABS,CON)

        Value  Global            Value  Global            Value  Global    
        -----  ------            -----  ------            -----  ------    
ASxxxx Linker V03.00 + NoICE + sdld,  page 10.
Hexadecimal  [32-Bits]

Area                       Addr        Size        Decimal Bytes (Attributes)
--------------------       ----        ----        ------- ----- ------------
_HEADER6               00000000    00000030 =          48. bytes (ABS,CON)

        Value  Global            Value  Global            Value  Global    
        -----  ------            -----  ------            -----  ------    
ASxxxx Linker V03.00 + NoICE + sdld,  page 11.
Hexadecimal  [32-Bits]

Area                       Addr        Size        Decimal Bytes (Attributes)
--------------------       ----        ----        ------- ----- ------------
_HEADER7               00000000    00000006 =           6. bytes (ABS,CON)

        Value  Global            Value  Global            Value  Global    
        -----  ------            -----  ------            -----  ------    
ASxxxx Linker V03.00 + NoICE + sdld,  page 12.
Hexadecimal  [32-Bits]

Area                       Addr        Size        Decimal Bytes (Attributes)
--------------------       ----        ----        ------- ----- ------------
_HEADER8               00000000    00000003 =           3. bytes (ABS,CON)

        Value  Global            Value  Global            Value  Global    
        -----  ------            -----  ------            -----  ------    
ASxxxx Linker V03.00 + NoICE + sdld,  page 13.
Hexadecimal  [32-Bits]

Area                       Addr        Size        Decimal Bytes (Attributes)
--------------------       ----        ----        ------- ----- ------------
_HEADER9               00000000    00000001 =           1. bytes (ABS,CON)

        Value  Global            Value  Global            Value  Global    
        -----  ------            -----  ------            -----  ------    
ASxxxx Linker V03.00 + NoICE + sdld,  page 14.
Hexadecimal  [32-Bits]

Area                       Addr        Size        Decimal Bytes (Attributes)
--------------------       ----        ----        ------- ----- ------------
_HEADERa               00000000    00000001 =           1. bytes (ABS,CON)

        Value  Global            Value  Global            Value  Global    
        -----  ------            -----  ------            -----  ------    
ASxxxx Linker V03.00 + NoICE + sdld,  page 15.
Hexadecimal  [32-Bits]

Area                       Addr        Size        Decimal Bytes (Attributes)
--------------------       ----        ----        ------- ----- ------------
_HEADERb               00000000    00000001 =           1. bytes (ABS,CON)

        Value  Global            Value  Global            Value  Global    
        -----  ------            -----  ------            -----  ------    
ASxxxx Linker V03.00 + NoICE + sdld,  page 16.
Hexadecimal  [32-Bits]

Area                       Addr        Size        Decimal Bytes (Attributes)
--------------------       ----        ----        ------- ----- ------------
_HEADERc               00000000    00000002 =           2. bytes (ABS,CON)

        Value  Global            Value  Global            Value  Global    
        -----  ------            -----  ------            -----  ------    
ASxxxx Linker V03.00 + NoICE + sdld,  page 17.
Hexadecimal  [32-Bits]

Area                       Addr        Size        Decimal Bytes (Attributes)
--------------------       ----        ----        ------- ----- ------------
_HEADERd               00000000    00000001 =           1. bytes (ABS,CON)

        Value  Global            Value  Global            Value  Global    
        -----  ------            -----  ------            -----  ------    
ASxxxx Linker V03.00 + NoICE + sdld,  page 18.
Hexadecimal  [32-Bits]

Area                       Addr        Size        Decimal Bytes (Attributes)
--------------------       ----        ----        ------- ----- ------------
_HEADERe               00000000    00000001 =           1. bytes (ABS,CON)

        Value  Global            Value  Global            Value  Global    
        -----  ------            -----  ------            -----  ------    
ASxxxx Linker V03.00 + NoICE + sdld,  page 19.
Hexadecimal  [32-Bits]

Area                       Addr        Size        Decimal Bytes (Attributes)
--------------------       ----        ----        ------- ----- ------------
_HEADERf               00000000    00000002 =           2. bytes (ABS,CON)

        Value  Global            Value  Global            Value  Global    
        -----  ------            -----  ------            -----  ------    
ASxxxx Linker V03.00 + NoICE + sdld,  page 20.
Hexadecimal  [32-Bits]

Area                       Addr        Size        Decimal Bytes (Attributes)
--------------------       ----        ----        ------- ----- ------------
_HEADER10              00000000    00000082 =         130. bytes (ABS,CON)

        Value  Global            Value  Global            Value  Global    
        -----  ------            -----  ------            -----  ------    
     00000150  .reset    |    00000150  _reset    |    00000157  .code_sta
     000001B7  _exit     |    000001BB  _set_inte
ASxxxx Linker V03.00 + NoICE + sdld,  page 21.
Hexadecimal  [32-Bits]

Area                       Addr        Size        Decimal Bytes (Attributes)
--------------------       ----        ----        ------- ----- ------------
_HEADER11              00000000    00000001 =           1. bytes (ABS,CON)

        Value  Global            Value  Global            Value  Global    
        -----  ------            -----  ------            -----  ------    
ASxxxx Linker V03.00 + NoICE + sdld,  page 22.
Hexadecimal  [32-Bits]

Area                       Addr        Size        Decimal Bytes (Attributes)
--------------------       ----        ----        ------- ----- ------------
_HOME                  00002830    0000033B =         827. bytes (REL,CON)

        Value  Global            Value  Global            Value  Global    
        -----  ------            -----  ------            -----  ------    
     00002830  .memset_s |    00002839  .memcpy_s |    00002856  .remove_V
     00002859  .remove_i |    00002876  .add_VBL  |    00002879  .add_int 
     00002884  .wait_vbl |    00002884  _wait_vbl |    00002894  .display_
     00002894  _display_ |    000028AC  _remove_V |    000028B7  _add_VBL 
     000028C2  __divsuch |    000028CF  __modsuch |    000028D9  __divusch
     000028EB  __modusch |    000028FB  __divscha |    00002907  __modscha
     00002911  __divsint |    00002922  __modsint |    00002931  __divucha
     0000293D  __moducha |    00002947  __divuint |    00002958  __moduint
     00002967  .div8     |    00002967  .mod8     |    0000296F  .div16   
     0000296F  .mod16    |    000029A5  .divu8    |    000029A5  .modu8   
     000029A8  .divu16   |    000029A8  .modu16   |    000029E9  _set_tile
     000029EE  _set_bkg_ |    000029EE  _set_win_ |    000029F6  _set_spri
     00002A26  _fill_bkg |    00002A38  .padup    |    00002A38  _waitpadu
     00002A48  .jpad     |    00002A48  _joypad   |    00002A70  _waitpad 
     00002A73  .wait_pad |    00002A7A  _delay    |    00002A7F  .delay   
     00002AAB  _set_bkg_ |    00002ABF  .fill_rec |    00002AC8  .fill_rec
     00002B15  .set_xy_w |    00002B1E  .set_xy_b |    00002B2D  .set_xy_t
ASxxxx Linker V03.00 + NoICE + sdld,  page 23.
Hexadecimal  [32-Bits]

Area                       Addr        Size        Decimal Bytes (Attributes)
--------------------       ----        ----        ------- ----- ------------
_INITIALIZER           00002B6B    0000000B =          11. bytes (REL,CON)

        Value  Global            Value  Global            Value  Global    
        -----  ------            -----  ------            -----  ------    
ASxxxx Linker V03.00 + NoICE + sdld,  page 24.
Hexadecimal  [32-Bits]

Area                       Addr        Size        Decimal Bytes (Attributes)
--------------------       ----        ----        ------- ----- ------------
_GSINIT                00002B76    0000000C =          12. bytes (REL,CON)

        Value  Global            Value  Global            Value  Global    
        -----  ------            -----  ------            -----  ------    
     00002B76  gsinit   
ASxxxx Linker V03.00 + NoICE + sdld,  page 25.
Hexadecimal  [32-Bits]

Area                       Addr        Size        Decimal Bytes (Attributes)
--------------------       ----        ----        ------- ----- ------------
_GSFINAL               00002B82    00000001 =           1. bytes (REL,CON)

        Value  Global            Value  Global            Value  Global    
        -----  ------            -----  ------            -----  ------    
ASxxxx Linker V03.00 + NoICE + sdld,  page 26.
Hexadecimal  [32-Bits]

Area                       Addr        Size        Decimal Bytes (Attributes)
--------------------       ----        ----        ------- ----- ------------
_DATA                  0000C0A0    000000F3 =         243. bytes (REL,CON)

        Value  Global            Value  Global            Value  Global    
        -----  ------            -----  ------            -----  ------    
     0000C0A0  __cpu     |    0000C0A1  __is_GBA  |    0000C0A2  .mode    
     0000C0A3  .sys_time |    0000C0A3  _sys_time |    0000C0A5  .int_0x40
     0000C0B9  _paddle   |    0000C0BE  _invaders |    0000C186  _invaderS
     0000C187  _invaderC |    0000C188  _topRow   |    0000C189  _shotTime
     0000C18A  _alienCou |    0000C18C  _blinkCou |    0000C18D  _showText
     0000C18E  _score    |    0000C190  _joypadCu |    0000C191  _joypadPr
     0000C192  _invaders
ASxxxx Linker V03.00 + NoICE + sdld,  page 27.
Hexadecimal  [32-Bits]

Area                       Addr        Size        Decimal Bytes (Attributes)
--------------------       ----        ----        ------- ----- ------------
_INITIALIZED           0000C193    0000000B =          11. bytes (REL,CON)

        Value  Global            Value  Global            Value  Global    
        -----  ------            -----  ------            -----  ------    
     0000C193  _moveRow  |    0000C194  _rowsAtEn |    0000C195  _helper  
     0000C19A  _level    |    0000C19B  _highScor |    0000C19C  _spaceInv
     0000C19D  _slideDir
ASxxxx Linker V03.00 + NoICE + sdld,  page 28.
Hexadecimal  [32-Bits]

Area                       Addr        Size        Decimal Bytes (Attributes)
--------------------       ----        ----        ------- ----- ------------
_HRAM12                00000000    00000003 =           3. bytes (ABS,CON)

        Value  Global            Value  Global            Value  Global    
        -----  ------            -----  ------            -----  ------    
     0000FF90  __current |    0000FF92  __shadow_
ASxxxx Linker V03.00 + NoICE + sdld,  page 29.

Files Linked                              [ module(s) ]

C:\gbdk\lib/small/asxxxx/gb/crt0.o        [ Runtime ]
bin/player.o                              [ player ]
bin/invaders.o                            [ invaders ]
bin/bullets.o                             [ bullets ]
bin/alien.o                               [ alien ]
bin/StartScreen.o                         [ StartScreen ]
bin/NextLevelScreen.o                     [ NextLevelScreen ]
bin/MenuScreen.o                          [ MenuScreen ]
bin/GamplayScreen.o                       [ GamplayScreen ]
bin/GameOverScreen.o                      [ GameOverScreen ]
bin/GameFirstLoad.o                       [ GameFirstLoad ]
bin/main.o                                [ main ]
bin/Hud.o                                 [ Hud ]
bin/Common.o                              [ Common ]
bin/gen_SpaceInvadersTitle.o              [ SpaceInvadersTitle ]
bin/gen_SpaceInvadersFont.o               [ SpaceInvadersFont ]
bin/gen_Player.o                          [ Player ]
bin/gen_Invader3.o                        [ Invader3 ]
bin/gen_Invader2.o                        [ Invader2 ]
bin/gen_Invader1.o                        [ Invader1 ]
bin/gen_Explosion.o                       [ Explosion ]
bin/gen_BulletC.o                         [ BulletC ]
bin/gen_BulletB.o                         [ BulletB ]
bin/gen_BulletA.o                         [ BulletA ]
bin/gen_Barricade.o                       [ Barricade ]
bin/gen_Alien.o                           [ Alien ]


Libraries Linked                          [ object file ]

C:\gbdk\lib/small/asxxxx/gbz80/gbz80.lib  [ div.o ]
C:\gbdk\lib/small/asxxxx/gb/gb.lib        [ sfr.o ]
C:\gbdk\lib/small/asxxxx/gb/gb.lib        [ cgb_palettes.o ]
C:\gbdk\lib/small/asxxxx/gb/gb.lib        [ get_tile.o ]
C:\gbdk\lib/small/asxxxx/gb/gb.lib        [ set_data.o ]
C:\gbdk\lib/small/asxxxx/gb/gb.lib        [ set_tile.o ]
C:\gbdk\lib/small/asxxxx/gb/gb.lib        [ fill_rect_bk.o ]
C:\gbdk\lib/small/asxxxx/gb/gb.lib        [ pad.o ]
C:\gbdk\lib/small/asxxxx/gb/gb.lib        [ delay.o ]
C:\gbdk\lib/small/asxxxx/gb/gb.lib        [ set_bk_t.o ]
C:\gbdk\lib/small/asxxxx/gb/gb.lib        [ fill_rect.o ]
C:\gbdk\lib/small/asxxxx/gb/gb.lib        [ set_xy_t.o ]

ASxxxx Linker V03.00 + NoICE + sdld,  page 30.

User Base Address Definitions

_DATA=0xC0A0
_CODE=0x0200
ASxxxx Linker V03.00 + NoICE + sdld,  page 31.

User Global Definitions

_shadow_OAM=0xC000
.STACK=0xE000
.refresh_OAM=0xFF80

